	.file	"generic_pda.c"
	.text
.Ltext0:
	.file 0 "/home/finn/Documents/OTH/CC/CompilerConstruction/ex6/ex1" "src/generic_pda.c"
	.p2align 4
	.globl	create_dfa
	.type	create_dfa, @function
create_dfa:
.LVL0:
.LFB51:
	.file 1 "src/generic_pda.c"
	.loc 1 11 53 view -0
	.cfi_startproc
	.loc 1 11 53 is_stmt 0 view .LVU1
	endbr64
	.loc 1 12 5 is_stmt 1 view .LVU2
	.loc 1 11 53 is_stmt 0 view .LVU3
	pushq	%rbp
	.cfi_def_cfa_offset 16
	.cfi_offset 6, -16
	movl	%edi, %ebp
	.loc 1 12 23 view .LVU4
	movl	$16, %edi
.LVL1:
	.loc 1 11 53 view .LVU5
	pushq	%rbx
	.cfi_def_cfa_offset 24
	.cfi_offset 3, -24
	movq	%rsi, %rbx
	subq	$8, %rsp
	.cfi_def_cfa_offset 32
	.loc 1 12 23 view .LVU6
	call	malloc@PLT
.LVL2:
	.loc 1 14 5 is_stmt 1 view .LVU7
	.loc 1 14 18 is_stmt 0 view .LVU8
	movl	%ebp, (%rax)
	.loc 1 15 5 is_stmt 1 view .LVU9
	.loc 1 15 21 is_stmt 0 view .LVU10
	movq	%rbx, 8(%rax)
	.loc 1 17 5 is_stmt 1 view .LVU11
	.loc 1 18 1 is_stmt 0 view .LVU12
	addq	$8, %rsp
	.cfi_def_cfa_offset 24
	popq	%rbx
	.cfi_def_cfa_offset 16
.LVL3:
	.loc 1 18 1 view .LVU13
	popq	%rbp
	.cfi_def_cfa_offset 8
.LVL4:
	.loc 1 18 1 view .LVU14
	ret
	.cfi_endproc
.LFE51:
	.size	create_dfa, .-create_dfa
	.p2align 4
	.globl	dfa_new_ctx
	.type	dfa_new_ctx, @function
dfa_new_ctx:
.LVL5:
.LFB52:
	.loc 1 20 59 is_stmt 1 view -0
	.cfi_startproc
	.loc 1 20 59 is_stmt 0 view .LVU16
	endbr64
	.loc 1 21 5 is_stmt 1 view .LVU17
	.loc 1 20 59 is_stmt 0 view .LVU18
	pushq	%r12
	.cfi_def_cfa_offset 16
	.cfi_offset 12, -16
	pushq	%rbp
	.cfi_def_cfa_offset 24
	.cfi_offset 6, -24
	movq	%rsi, %rbp
	pushq	%rbx
	.cfi_def_cfa_offset 32
	.cfi_offset 3, -32
	.loc 1 20 59 view .LVU19
	movq	%rdi, %rbx
	.loc 1 21 27 view .LVU20
	movl	$40, %edi
.LVL6:
	.loc 1 21 27 view .LVU21
	call	malloc@PLT
.LVL7:
	.loc 1 25 18 view .LVU22
	movq	%rbp, %rdi
	.loc 1 23 14 view .LVU23
	movq	%rbx, (%rax)
	.loc 1 21 27 view .LVU24
	movq	%rax, %r12
.LVL8:
	.loc 1 23 5 is_stmt 1 view .LVU25
	.loc 1 24 5 view .LVU26
	.loc 1 24 16 is_stmt 0 view .LVU27
	movl	(%rbx), %eax
.LVL9:
	.loc 1 24 16 view .LVU28
	movl	%eax, 8(%r12)
	.loc 1 25 5 is_stmt 1 view .LVU29
	.loc 1 25 18 is_stmt 0 view .LVU30
	call	strdup@PLT
.LVL10:
	.loc 1 29 1 view .LVU31
	popq	%rbx
	.cfi_def_cfa_offset 24
.LVL11:
	.loc 1 29 1 view .LVU32
	popq	%rbp
	.cfi_def_cfa_offset 16
.LVL12:
	.loc 1 26 17 view .LVU33
	movl	$0, 24(%r12)
	.loc 1 25 16 view .LVU34
	movq	%rax, 16(%r12)
	.loc 1 26 5 is_stmt 1 view .LVU35
	.loc 1 28 5 view .LVU36
	.loc 1 29 1 is_stmt 0 view .LVU37
	movq	%r12, %rax
	popq	%r12
	.cfi_def_cfa_offset 8
.LVL13:
	.loc 1 29 1 view .LVU38
	ret
	.cfi_endproc
.LFE52:
	.size	dfa_new_ctx, .-dfa_new_ctx
	.p2align 4
	.globl	run_dfa
	.type	run_dfa, @function
run_dfa:
.LVL14:
.LFB53:
	.loc 1 31 35 is_stmt 1 view -0
	.cfi_startproc
	.loc 1 31 35 is_stmt 0 view .LVU40
	endbr64
	.loc 1 32 5 is_stmt 1 view .LVU41
	.loc 1 31 35 is_stmt 0 view .LVU42
	pushq	%rbx
	.cfi_def_cfa_offset 16
	.cfi_offset 3, -16
	.loc 1 31 35 view .LVU43
	movq	%rdi, %rbx
.LBB2:
	.loc 1 37 22 view .LVU44
	movl	8(%rdi), %edi
.LVL15:
	.loc 1 37 22 view .LVU45
.LBE2:
	.loc 1 32 11 view .LVU46
	jmp	.L7
	.p2align 4,,10
	.p2align 3
.L9:
.LBB3:
	.loc 1 35 9 is_stmt 1 view .LVU47
	.loc 1 35 41 is_stmt 0 view .LVU48
	addl	$1, %edx
	movl	%edx, 24(%rbx)
.LVL16:
	.loc 1 37 9 is_stmt 1 view .LVU49
	.loc 1 37 22 is_stmt 0 view .LVU50
	movsbl	(%rax), %esi
	.loc 1 37 30 view .LVU51
	movq	(%rbx), %rax
.LVL17:
	.loc 1 37 22 view .LVU52
	call	*8(%rax)
.LVL18:
	.loc 1 37 20 view .LVU53
	movl	%eax, 8(%rbx)
	.loc 1 38 9 is_stmt 1 view .LVU54
	.loc 1 37 22 is_stmt 0 view .LVU55
	movl	%eax, %edi
	.loc 1 38 12 view .LVU56
	testl	%eax, %eax
	je	.L6
.L7:
	.loc 1 38 12 view .LVU57
.LBE3:
	.loc 1 32 36 is_stmt 1 view .LVU58
	.loc 1 32 26 is_stmt 0 view .LVU59
	movslq	24(%rbx), %rax
	movq	%rax, %rdx
	.loc 1 32 22 view .LVU60
	addq	16(%rbx), %rax
	.loc 1 32 36 view .LVU61
	cmpb	$0, (%rax)
	jne	.L9
	.loc 1 42 5 is_stmt 1 view .LVU62
	.loc 1 42 23 is_stmt 0 view .LVU63
	shrl	$31, %edi
.L6:
	.loc 1 43 1 view .LVU64
	movl	%edi, %eax
	popq	%rbx
	.cfi_def_cfa_offset 8
.LVL19:
	.loc 1 43 1 view .LVU65
	ret
	.cfi_endproc
.LFE53:
	.size	run_dfa, .-run_dfa
	.p2align 4
	.globl	generate_word
	.type	generate_word, @function
generate_word:
.LFB54:
	.loc 1 46 28 is_stmt 1 view -0
	.cfi_startproc
	endbr64
	.loc 1 47 3 view .LVU67
	.loc 1 46 28 is_stmt 0 view .LVU68
	pushq	%r13
	.cfi_def_cfa_offset 16
	.cfi_offset 13, -16
	pushq	%r12
	.cfi_def_cfa_offset 24
	.cfi_offset 12, -24
	pushq	%rbp
	.cfi_def_cfa_offset 32
	.cfi_offset 6, -32
	pushq	%rbx
	.cfi_def_cfa_offset 40
	.cfi_offset 3, -40
	subq	$8, %rsp
	.cfi_def_cfa_offset 48
	.loc 1 47 13 view .LVU69
	call	random@PLT
.LVL20:
	.loc 1 47 22 view .LVU70
	movabsq	$7378697629483820647, %rdx
	.loc 1 47 13 view .LVU71
	movq	%rax, %rcx
	.loc 1 47 22 view .LVU72
	imulq	%rdx
	movq	%rcx, %rax
	sarq	$63, %rax
	sarq	$3, %rdx
	movq	%rdx, %rbx
	subq	%rax, %rbx
	leaq	(%rbx,%rbx,4), %rax
	salq	$2, %rax
	subq	%rax, %rcx
	.loc 1 48 26 view .LVU73
	leal	1(%rcx), %edi
	.loc 1 47 22 view .LVU74
	movq	%rcx, %rbx
.LVL21:
	.loc 1 48 3 is_stmt 1 view .LVU75
	.loc 1 48 16 is_stmt 0 view .LVU76
	movslq	%edi, %rdi
	call	malloc@PLT
.LVL22:
	.loc 1 48 16 view .LVU77
	movq	%rax, %r12
.LVL23:
	.loc 1 50 3 is_stmt 1 view .LVU78
	.loc 1 50 10 view .LVU79
	.loc 1 50 10 is_stmt 0 view .LVU80
	testq	%rbx, %rbx
	je	.L15
	leal	-1(%rbx), %ebp
	.loc 1 48 32 view .LVU81
	movq	%r12, %r13
	movl	%ebp, %eax
.LVL24:
	.loc 1 48 32 view .LVU82
	leaq	1(%r12,%rax), %rbx
.LVL25:
	.p2align 4,,10
	.p2align 3
.L16:
	.loc 1 51 5 is_stmt 1 view .LVU83
	.loc 1 51 20 is_stmt 0 view .LVU84
	call	rand@PLT
.LVL26:
	.loc 1 51 9 view .LVU85
	addq	$1, %r13
.LVL27:
	.loc 1 51 26 view .LVU86
	movl	%eax, %edx
	shrl	$31, %edx
	addl	%edx, %eax
	andl	$1, %eax
	subl	%edx, %eax
	.loc 1 51 18 view .LVU87
	addl	$48, %eax
	movb	%al, -1(%r13)
	.loc 1 50 10 is_stmt 1 view .LVU88
	.loc 1 50 10 is_stmt 0 view .LVU89
	cmpq	%rbx, %r13
	jne	.L16
	.loc 1 51 9 view .LVU90
	leaq	1(%r12,%rbp), %rax
.LVL28:
.L15:
	.loc 1 53 3 is_stmt 1 view .LVU91
	.loc 1 53 8 is_stmt 0 view .LVU92
	movb	$0, (%rax)
	.loc 1 55 3 is_stmt 1 view .LVU93
	.loc 1 56 1 is_stmt 0 view .LVU94
	addq	$8, %rsp
	.cfi_def_cfa_offset 40
	movq	%r12, %rax
	popq	%rbx
	.cfi_def_cfa_offset 32
	popq	%rbp
	.cfi_def_cfa_offset 24
	popq	%r12
	.cfi_def_cfa_offset 16
.LVL29:
	.loc 1 56 1 view .LVU95
	popq	%r13
	.cfi_def_cfa_offset 8
	ret
	.cfi_endproc
.LFE54:
	.size	generate_word, .-generate_word
.Letext0:
	.file 2 "/usr/lib/gcc/x86_64-linux-gnu/11/include/stddef.h"
	.file 3 "include/stack.h"
	.file 4 "include/generic_pda.h"
	.file 5 "/usr/include/stdlib.h"
	.file 6 "/usr/include/string.h"
	.section	.note.GNU-stack,"",@progbits
	.section	.note.gnu.property,"a"
	.align 8
	.long	1f - 0f
	.long	4f - 1f
	.long	5
0:
	.string	"GNU"
1:
	.align 8
	.long	0xc0000002
	.long	3f - 2f
2:
	.long	0x3
3:
	.align 8
4:
