	.file	"main.c"
	.text
.Ltext0:
	.file 0 "/home/finn/Documents/OTH/CC/CompilerConstruction" "src/main.c"
	.p2align 4
	.type	replace.part.0, @function
replace.part.0:
.LVL0:
.LFB57:
	.file 1 "src/main.c"
	.loc 1 22 7 view -0
	.cfi_startproc
	.loc 1 26 2 view .LVU1
	.loc 1 28 2 view .LVU2
	.loc 1 22 7 is_stmt 0 view .LVU3
	pushq	%r15
	.cfi_def_cfa_offset 16
	.cfi_offset 15, -16
	pushq	%r14
	.cfi_def_cfa_offset 24
	.cfi_offset 14, -24
	pushq	%r13
	.cfi_def_cfa_offset 32
	.cfi_offset 13, -32
	movq	%rdi, %r13
	.loc 1 28 20 view .LVU4
	movq	%rdx, %rdi
.LVL1:
	.loc 1 22 7 view .LVU5
	pushq	%r12
	.cfi_def_cfa_offset 40
	.cfi_offset 12, -40
	pushq	%rbp
	.cfi_def_cfa_offset 48
	.cfi_offset 6, -48
	movq	%rsi, %rbp
	pushq	%rbx
	.cfi_def_cfa_offset 56
	.cfi_offset 3, -56
	subq	$56, %rsp
	.cfi_def_cfa_offset 112
	.loc 1 22 7 view .LVU6
	movq	%rdx, 40(%rsp)
	movl	%ecx, 16(%rsp)
	.loc 1 28 20 view .LVU7
	call	strlen@PLT
.LVL2:
	.loc 1 29 19 view .LVU8
	movq	%rbp, %rdi
	.loc 1 28 20 view .LVU9
	movq	%rax, %r14
	.loc 1 28 6 view .LVU10
	movl	%eax, 32(%rsp)
.LVL3:
	.loc 1 29 2 is_stmt 1 view .LVU11
	.loc 1 29 19 is_stmt 0 view .LVU12
	call	strlen@PLT
.LVL4:
	.loc 1 30 17 view .LVU13
	movq	%r13, %rdi
	.loc 1 29 19 view .LVU14
	movq	%rax, %rbx
	.loc 1 29 6 view .LVU15
	movl	%eax, 36(%rsp)
.LVL5:
	.loc 1 30 2 is_stmt 1 view .LVU16
	.loc 1 30 17 is_stmt 0 view .LVU17
	call	strlen@PLT
.LVL6:
	.loc 1 32 2 is_stmt 1 view .LVU18
	.loc 1 32 27 is_stmt 0 view .LVU19
	movq	%r14, 24(%rsp)
	leal	(%r14,%rax), %edi
	.loc 1 32 41 view .LVU20
	subl	%ebx, %edi
	.loc 1 32 54 view .LVU21
	addl	$1, %edi
	.loc 1 32 11 view .LVU22
	movslq	%edi, %rdi
	call	malloc@PLT
.LVL7:
	.loc 1 37 8 view .LVU23
	movzbl	0(%r13), %r14d
.LVL8:
	.loc 1 32 11 view .LVU24
	movq	%rax, %r12
.LVL9:
	.loc 1 34 2 is_stmt 1 view .LVU25
	.loc 1 35 2 view .LVU26
	.loc 1 36 1 view .LVU27
	.loc 1 37 2 view .LVU28
	.loc 1 37 8 view .LVU29
	testb	%r14b, %r14b
	je	.L2
.LBB18:
.LBB19:
.LBB20:
	.file 2 "/usr/include/x86_64-linux-gnu/bits/string_fortified.h"
	.loc 2 79 10 is_stmt 0 view .LVU30
	movq	24(%rsp), %rax
.LVL10:
	.loc 2 79 10 view .LVU31
.LBE20:
.LBE19:
.LBE18:
	.loc 1 34 6 view .LVU32
	xorl	%r15d, %r15d
	.loc 1 36 6 view .LVU33
	movb	$0, 23(%rsp)
	.loc 1 35 6 view .LVU34
	movl	$0, 12(%rsp)
.LBB25:
.LBB23:
.LBB21:
	.loc 2 79 10 view .LVU35
	addq	$1, %rax
	movq	%rax, 24(%rsp)
	movl	%r15d, %eax
	movl	%r14d, %r15d
	movl	%eax, %r14d
	jmp	.L5
.LVL11:
	.p2align 4,,10
	.p2align 3
.L3:
	.loc 2 79 10 view .LVU36
.LBE21:
.LBE23:
	.loc 1 48 4 is_stmt 1 view .LVU37
	.loc 1 48 23 is_stmt 0 view .LVU38
	addq	$1, %r13
.LVL12:
	.loc 1 48 16 view .LVU39
	movb	%r15b, (%rdi)
	.loc 1 48 12 view .LVU40
	addl	$1, %r14d
.LVL13:
	.loc 1 48 12 view .LVU41
.LBE25:
	.loc 1 37 8 is_stmt 1 view .LVU42
	movzbl	0(%r13), %r15d
	testb	%r15b, %r15b
	je	.L15
.LVL14:
.L5:
.LBB26:
	.loc 1 39 3 view .LVU43
	movq	%r13, %rdi
	movq	%rbx, %rdx
	movq	%rbp, %rsi
	call	strncmp@PLT
.LVL15:
	.loc 1 41 3 view .LVU44
	.loc 1 42 4 is_stmt 0 view .LVU45
	movslq	%r14d, %rdi
	addq	%r12, %rdi
	.loc 1 41 5 view .LVU46
	testl	%eax, %eax
	jne	.L3
	.loc 1 41 35 view .LVU47
	movl	12(%rsp), %eax
	.loc 1 41 18 view .LVU48
	cmpl	%eax, 16(%rsp)
	.loc 1 41 35 view .LVU49
	leal	1(%rax), %r9d
.LVL16:
	.loc 1 41 35 view .LVU50
	movl	%r9d, 12(%rsp)
	.loc 1 41 18 view .LVU51
	jne	.L3
	.loc 1 42 4 is_stmt 1 view .LVU52
.LVL17:
.LBB24:
.LBI19:
	.loc 2 77 42 view .LVU53
.LBB22:
	.loc 2 79 3 view .LVU54
	.loc 2 79 10 is_stmt 0 view .LVU55
	movq	24(%rsp), %rdx
	movq	40(%rsp), %rsi
	call	memcpy@PLT
.LVL18:
	.loc 2 79 10 view .LVU56
.LBE22:
.LBE24:
	.loc 1 43 4 is_stmt 1 view .LVU57
	.loc 1 44 9 is_stmt 0 view .LVU58
	movslq	36(%rsp), %rax
	.loc 1 45 24 view .LVU59
	movb	$1, 23(%rsp)
.LVL19:
	.loc 1 43 5 view .LVU60
	addl	32(%rsp), %r14d
.LVL20:
	.loc 1 44 4 is_stmt 1 view .LVU61
	.loc 1 44 9 is_stmt 0 view .LVU62
	addq	%rax, %r13
.LVL21:
	.loc 1 45 4 is_stmt 1 view .LVU63
	.loc 1 45 4 is_stmt 0 view .LVU64
.LBE26:
	.loc 1 37 8 is_stmt 1 view .LVU65
	movzbl	0(%r13), %r15d
	testb	%r15b, %r15b
	jne	.L5
	.p2align 4,,10
	.p2align 3
.L15:
	.loc 1 37 8 is_stmt 0 view .LVU66
	movslq	%r14d, %rcx
	.loc 1 52 2 is_stmt 1 view .LVU67
	.loc 1 55 4 is_stmt 0 view .LVU68
	cmpb	$0, 23(%rsp)
	.loc 1 52 12 view .LVU69
	movb	$0, (%r12,%rcx)
	.loc 1 55 2 is_stmt 1 view .LVU70
	.loc 1 55 4 is_stmt 0 view .LVU71
	je	.L7
.LVL22:
.L1:
	.loc 1 59 1 view .LVU72
	addq	$56, %rsp
	.cfi_remember_state
	.cfi_def_cfa_offset 56
	movq	%r12, %rax
	popq	%rbx
	.cfi_def_cfa_offset 48
.LVL23:
	.loc 1 59 1 view .LVU73
	popq	%rbp
	.cfi_def_cfa_offset 40
.LVL24:
	.loc 1 59 1 view .LVU74
	popq	%r12
	.cfi_def_cfa_offset 32
	popq	%r13
	.cfi_def_cfa_offset 24
.LVL25:
	.loc 1 59 1 view .LVU75
	popq	%r14
	.cfi_def_cfa_offset 16
	popq	%r15
	.cfi_def_cfa_offset 8
	ret
.LVL26:
	.p2align 4,,10
	.p2align 3
.L2:
	.cfi_restore_state
	.loc 1 52 2 is_stmt 1 view .LVU76
	.loc 1 52 12 is_stmt 0 view .LVU77
	movb	$0, (%rax)
	.loc 1 55 2 is_stmt 1 view .LVU78
.LVL27:
.L7:
	.loc 1 55 29 view .LVU79
	.loc 1 55 35 is_stmt 0 view .LVU80
	xorl	%r12d, %r12d
.LVL28:
	.loc 1 55 35 view .LVU81
	jmp	.L1
	.cfi_endproc
.LFE57:
	.size	replace.part.0, .-replace.part.0
	.p2align 4
	.globl	is_lower_string
	.type	is_lower_string, @function
is_lower_string:
.LVL29:
.LFB53:
	.loc 1 11 29 is_stmt 1 view -0
	.cfi_startproc
	.loc 1 11 29 is_stmt 0 view .LVU83
	endbr64
	.loc 1 13 2 is_stmt 1 view .LVU84
.LBB28:
	.loc 1 13 6 view .LVU85
.LVL30:
	.loc 1 13 23 view .LVU86
	testq	%rdi, %rdi
	je	.L20
.LBE28:
	.loc 1 11 29 is_stmt 0 view .LVU87
	pushq	%rbp
	.cfi_def_cfa_offset 16
	.cfi_offset 6, -16
	movq	%rdi, %rbp
	pushq	%rbx
	.cfi_def_cfa_offset 24
	.cfi_offset 3, -24
	subq	$8, %rsp
	.cfi_def_cfa_offset 32
	jmp	.L18
.LVL31:
	.p2align 4,,10
	.p2align 3
.L19:
.LBB29:
	.loc 1 14 3 is_stmt 1 view .LVU88
	.loc 1 14 9 is_stmt 0 view .LVU89
	call	__ctype_b_loc@PLT
.LVL32:
	.loc 1 14 5 view .LVU90
	addq	$1, %rbp
.LVL33:
	.loc 1 14 26 view .LVU91
	movq	(%rax), %rax
	.loc 1 14 5 view .LVU92
	testb	$2, 1(%rax,%rbx,2)
	je	.L21
.L18:
.LVL34:
	.loc 1 13 27 discriminator 3 view .LVU93
	movsbq	0(%rbp), %rbx
	.loc 1 13 23 discriminator 3 view .LVU94
	testb	%bl, %bl
	jne	.L19
.LBE29:
	.loc 1 19 1 view .LVU95
	addq	$8, %rsp
	.cfi_remember_state
	.cfi_def_cfa_offset 24
	.loc 1 18 8 view .LVU96
	movl	$1, %eax
	.loc 1 19 1 view .LVU97
	popq	%rbx
	.cfi_def_cfa_offset 16
	popq	%rbp
	.cfi_def_cfa_offset 8
.LVL35:
	.loc 1 19 1 view .LVU98
	ret
	.p2align 4,,10
	.p2align 3
.L21:
	.cfi_restore_state
	addq	$8, %rsp
	.cfi_def_cfa_offset 24
.LBB30:
	.loc 1 15 10 view .LVU99
	xorl	%eax, %eax
.LBE30:
	.loc 1 19 1 view .LVU100
	popq	%rbx
	.cfi_def_cfa_offset 16
	popq	%rbp
	.cfi_def_cfa_offset 8
	ret
.LVL36:
.L20:
	.cfi_restore 3
	.cfi_restore 6
	.loc 1 18 8 view .LVU101
	movl	$1, %eax
	.loc 1 19 1 view .LVU102
	ret
	.cfi_endproc
.LFE53:
	.size	is_lower_string, .-is_lower_string
	.p2align 4
	.globl	replace
	.type	replace, @function
replace:
.LVL37:
.LFB54:
	.loc 1 22 86 is_stmt 1 view -0
	.cfi_startproc
	.loc 1 22 86 is_stmt 0 view .LVU104
	endbr64
	.loc 1 24 2 is_stmt 1 view .LVU105
	.loc 1 24 27 is_stmt 0 view .LVU106
	testq	%rsi, %rsi
	sete	%al
	.loc 1 24 35 view .LVU107
	testq	%rdx, %rdx
	sete	%r8b
	orb	%r8b, %al
	jne	.L27
	testq	%rdi, %rdi
	je	.L27
	jmp	replace.part.0
.LVL38:
	.p2align 4,,10
	.p2align 3
.L27:
	.loc 1 59 1 view .LVU108
	xorl	%eax, %eax
	ret
	.cfi_endproc
.LFE54:
	.size	replace, .-replace
	.p2align 4
	.globl	generate_words
	.type	generate_words, @function
generate_words:
.LFB55:
	.loc 1 62 26 is_stmt 1 view -0
	.cfi_startproc
	endbr64
	pushq	%r15
	.cfi_def_cfa_offset 16
	.cfi_offset 15, -16
	pushq	%r14
	.cfi_def_cfa_offset 24
	.cfi_offset 14, -24
	pushq	%r13
	.cfi_def_cfa_offset 32
	.cfi_offset 13, -32
	leaq	64+rules(%rip), %r13
	pushq	%r12
	.cfi_def_cfa_offset 40
	.cfi_offset 12, -40
	pushq	%rbp
	.cfi_def_cfa_offset 48
	.cfi_offset 6, -48
	pushq	%rbx
	.cfi_def_cfa_offset 56
	.cfi_offset 3, -56
	subq	$40, %rsp
	.cfi_def_cfa_offset 96
	.loc 1 62 26 is_stmt 0 view .LVU110
	movq	%fs:40, %rax
	movq	%rax, 24(%rsp)
	xorl	%eax, %eax
	.loc 1 65 2 is_stmt 1 view .LVU111
	.loc 1 66 2 view .LVU112
	movq	%rsp, %r12
	movq	%r12, %rdi
	call	init_queue@PLT
.LVL39:
	.loc 1 67 2 view .LVU113
	movq	start_symbol(%rip), %rsi
	movq	%r12, %rdi
	call	enqueue@PLT
.LVL40:
	.loc 1 71 2 view .LVU114
	.loc 1 72 2 view .LVU115
	.loc 1 72 40 view .LVU116
	.loc 1 72 22 is_stmt 0 view .LVU117
	movq	%r12, %rdi
	call	dequeue@PLT
.LVL41:
	movq	%rax, %rbx
.LVL42:
	.loc 1 72 40 view .LVU118
	testq	%rax, %rax
	je	.L28
	.p2align 4,,10
	.p2align 3
.L50:
.LVL43:
.LBB40:
.LBB41:
	.loc 1 13 23 is_stmt 1 view .LVU119
	.loc 1 13 27 is_stmt 0 view .LVU120
	movsbq	(%rax), %rbp
	.loc 1 13 23 view .LVU121
	testb	%bpl, %bpl
	je	.L32
	.loc 1 14 9 view .LVU122
	call	__ctype_b_loc@PLT
.LVL44:
	.loc 1 14 8 view .LVU123
	movq	(%rax), %rdx
	leaq	1(%rbx), %rax
	jmp	.L31
.LVL45:
	.p2align 4,,10
	.p2align 3
.L49:
	.loc 1 13 39 is_stmt 1 view .LVU124
	.loc 1 13 23 view .LVU125
	.loc 1 13 27 is_stmt 0 view .LVU126
	movsbq	(%rax), %rbp
	.loc 1 13 23 view .LVU127
	addq	$1, %rax
.LVL46:
	.loc 1 13 23 view .LVU128
	testb	%bpl, %bpl
	je	.L32
.L31:
.LVL47:
	.loc 1 14 3 is_stmt 1 view .LVU129
	.loc 1 14 5 is_stmt 0 view .LVU130
	testb	$2, 1(%rdx,%rbp,2)
	jne	.L49
.LVL48:
.L30:
	.loc 1 14 5 view .LVU131
	leaq	rules(%rip), %r15
	.p2align 4,,10
	.p2align 3
.L35:
.LVL49:
	.loc 1 14 5 view .LVU132
.LBE41:
.LBE40:
.LBB42:
.LBB43:
	.loc 1 82 75 is_stmt 1 view .LVU133
	.loc 1 82 58 is_stmt 0 view .LVU134
	movq	8(%r15), %rdx
	.loc 1 82 44 view .LVU135
	movq	(%r15), %rsi
.LVL50:
.LBB44:
.LBI44:
	.loc 1 22 7 is_stmt 1 view .LVU136
.LBB45:
	.loc 1 24 2 view .LVU137
	.loc 1 24 35 is_stmt 0 view .LVU138
	testq	%rdx, %rdx
	je	.L37
	testq	%rsi, %rsi
	je	.L37
	xorl	%r14d, %r14d
.LVL51:
.L33:
	.loc 1 24 35 view .LVU139
	movl	%r14d, %ecx
	movq	%rbx, %rdi
	call	replace.part.0
.LVL52:
	.loc 1 24 35 view .LVU140
	movq	%rax, %rbp
.LVL53:
	.loc 1 24 35 view .LVU141
.LBE45:
.LBE44:
	.loc 1 82 75 view .LVU142
	testq	%rax, %rax
	je	.L37
	.loc 1 83 5 is_stmt 1 view .LVU143
	movq	%rbp, %rsi
	movq	%r12, %rdi
.LBB48:
.LBB46:
	.loc 1 24 35 is_stmt 0 view .LVU144
	addl	$1, %r14d
.LVL54:
	.loc 1 24 35 view .LVU145
.LBE46:
.LBE48:
	.loc 1 83 5 view .LVU146
	call	enqueue@PLT
.LVL55:
	.loc 1 84 5 is_stmt 1 view .LVU147
	movq	%rbp, %rdi
	call	free@PLT
.LVL56:
	.loc 1 82 75 view .LVU148
	.loc 1 82 44 is_stmt 0 view .LVU149
	movq	(%r15), %rsi
.LVL57:
	.loc 1 82 58 view .LVU150
	movq	8(%r15), %rdx
.LVL58:
.LBB49:
	.loc 1 22 7 is_stmt 1 view .LVU151
.LBB47:
	.loc 1 24 2 view .LVU152
	.loc 1 24 35 is_stmt 0 view .LVU153
	testq	%rsi, %rsi
	je	.L37
	testq	%rdx, %rdx
	jne	.L33
.LVL59:
.L37:
	.loc 1 24 35 view .LVU154
.LBE47:
.LBE49:
.LBE43:
	.loc 1 77 49 is_stmt 1 view .LVU155
	.loc 1 77 18 view .LVU156
	addq	$16, %r15
.LVL60:
	.loc 1 77 18 is_stmt 0 view .LVU157
	cmpq	%r15, %r13
	jne	.L35
.LBE42:
	.loc 1 72 40 is_stmt 1 view .LVU158
	.loc 1 72 22 is_stmt 0 view .LVU159
	movq	%r12, %rdi
	call	dequeue@PLT
.LVL61:
	movq	%rax, %rbx
.LVL62:
	.loc 1 72 40 view .LVU160
	testq	%rax, %rax
	jne	.L50
.LVL63:
.L28:
	.loc 1 90 1 view .LVU161
	movq	24(%rsp), %rax
	subq	%fs:40, %rax
.LVL64:
	.loc 1 90 1 view .LVU162
	jne	.L51
	addq	$40, %rsp
	.cfi_remember_state
	.cfi_def_cfa_offset 56
	popq	%rbx
	.cfi_def_cfa_offset 48
.LVL65:
	.loc 1 90 1 view .LVU163
	popq	%rbp
	.cfi_def_cfa_offset 40
	popq	%r12
	.cfi_def_cfa_offset 32
	popq	%r13
	.cfi_def_cfa_offset 24
	popq	%r14
	.cfi_def_cfa_offset 16
	popq	%r15
	.cfi_def_cfa_offset 8
	ret
.LVL66:
	.p2align 4,,10
	.p2align 3
.L32:
	.cfi_restore_state
	.loc 1 74 4 is_stmt 1 view .LVU164
.LBB50:
.LBI50:
	.file 3 "/usr/include/x86_64-linux-gnu/bits/stdio2.h"
	.loc 3 110 1 view .LVU165
.LBB51:
	.loc 3 112 3 view .LVU166
	.loc 3 112 10 is_stmt 0 view .LVU167
	movq	%rbx, %rdi
	call	puts@PLT
.LVL67:
	.loc 3 112 10 view .LVU168
.LBE51:
.LBE50:
.LBB52:
	.loc 1 77 18 is_stmt 1 view .LVU169
	jmp	.L30
.LVL68:
.L51:
	.loc 1 77 18 is_stmt 0 view .LVU170
.LBE52:
	.loc 1 90 1 view .LVU171
	call	__stack_chk_fail@PLT
.LVL69:
	.cfi_endproc
.LFE55:
	.size	generate_words, .-generate_words
	.section	.text.startup,"ax",@progbits
	.p2align 4
	.globl	main
	.type	main, @function
main:
.LVL70:
.LFB56:
	.loc 1 95 32 is_stmt 1 view -0
	.cfi_startproc
	.loc 1 95 32 is_stmt 0 view .LVU173
	endbr64
	.loc 1 123 2 is_stmt 1 view .LVU174
	.loc 1 95 32 is_stmt 0 view .LVU175
	subq	$8, %rsp
	.cfi_def_cfa_offset 16
	.loc 1 123 2 view .LVU176
	call	generate_words
.LVL71:
	.loc 1 125 2 is_stmt 1 view .LVU177
	.loc 1 126 1 is_stmt 0 view .LVU178
	xorl	%eax, %eax
	addq	$8, %rsp
	.cfi_def_cfa_offset 8
	ret
	.cfi_endproc
.LFE56:
	.size	main, .-main
	.globl	start_symbol
	.section	.rodata.str1.1,"aMS",@progbits,1
.LC0:
	.string	"X"
	.section	.data.rel.local,"aw"
	.align 8
	.type	start_symbol, @object
	.size	start_symbol, 8
start_symbol:
	.quad	.LC0
	.globl	rules
	.section	.rodata.str1.1
.LC1:
	.string	"aXc"
.LC2:
	.string	"pY"
.LC3:
	.string	"Y"
.LC4:
	.string	"bYc"
.LC5:
	.string	"q"
	.section	.data.rel.local
	.align 32
	.type	rules, @object
	.size	rules, 64
rules:
	.quad	.LC0
	.quad	.LC1
	.quad	.LC0
	.quad	.LC2
	.quad	.LC3
	.quad	.LC4
	.quad	.LC3
	.quad	.LC5
	.text
.Letext0:
	.file 4 "include/queue.h"
	.file 5 "/usr/lib/gcc/x86_64-linux-gnu/11/include/stddef.h"
	.file 6 "include/rules.h"
	.file 7 "/usr/include/stdlib.h"
	.file 8 "/usr/include/string.h"
	.file 9 "<built-in>"
	.file 10 "/usr/include/ctype.h"
	.section	.note.GNU-stack,"",@progbits
	.section	.note.gnu.property,"a"
	.align 8
	.long	1f - 0f
	.long	4f - 1f
	.long	5
0:
	.string	"GNU"
1:
	.align 8
	.long	0xc0000002
	.long	3f - 2f
2:
	.long	0x3
3:
	.align 8
4:
