	.file	"pred_top_down_parser.c"
	.text
.Ltext0:
	.file 0 "/home/finn/Documents/OTH/CC/CompilerConstruction/ex7/ex2" "src/pred_top_down_parser.c"
	.p2align 4
	.globl	s_new
	.type	s_new, @function
s_new:
.LFB51:
	.file 1 "src/pred_top_down_parser.c"
	.loc 1 15 23 view -0
	.cfi_startproc
	endbr64
	.loc 1 16 3 view .LVU1
	.loc 1 16 10 is_stmt 0 view .LVU2
	movl	$16, %esi
	movl	$1, %edi
	jmp	calloc@PLT
.LVL0:
	.cfi_endproc
.LFE51:
	.size	s_new, .-s_new
	.p2align 4
	.globl	s_push
	.type	s_push, @function
s_push:
.LVL1:
.LFB52:
	.loc 1 19 38 is_stmt 1 view -0
	.cfi_startproc
	.loc 1 19 38 is_stmt 0 view .LVU4
	endbr64
	.loc 1 20 3 is_stmt 1 view .LVU5
	.loc 1 19 38 is_stmt 0 view .LVU6
	pushq	%rbp
	.cfi_def_cfa_offset 16
	.cfi_offset 6, -16
	movl	%esi, %ebp
	pushq	%rbx
	.cfi_def_cfa_offset 24
	.cfi_offset 3, -24
	movq	%rdi, %rbx
	subq	$8, %rsp
	.cfi_def_cfa_offset 32
	.loc 1 20 36 view .LVU7
	movl	8(%rdi), %eax
	.loc 1 20 12 view .LVU8
	movq	(%rdi), %rdi
.LVL2:
	.loc 1 20 36 view .LVU9
	leal	1(%rax), %esi
.LVL3:
	.loc 1 20 36 view .LVU10
	movslq	%esi, %rsi
	.loc 1 20 12 view .LVU11
	salq	$2, %rsi
	call	realloc@PLT
.LVL4:
	.loc 1 21 11 view .LVU12
	movslq	8(%rbx), %rdx
	.loc 1 20 10 view .LVU13
	movq	%rax, (%rbx)
	.loc 1 21 3 is_stmt 1 view .LVU14
	.loc 1 21 17 is_stmt 0 view .LVU15
	leal	1(%rdx), %ecx
	movl	%ecx, 8(%rbx)
	.loc 1 21 21 view .LVU16
	movl	%ebp, (%rax,%rdx,4)
	.loc 1 22 1 view .LVU17
	addq	$8, %rsp
	.cfi_def_cfa_offset 24
	popq	%rbx
	.cfi_def_cfa_offset 16
.LVL5:
	.loc 1 22 1 view .LVU18
	popq	%rbp
	.cfi_def_cfa_offset 8
.LVL6:
	.loc 1 22 1 view .LVU19
	ret
	.cfi_endproc
.LFE52:
	.size	s_push, .-s_push
	.p2align 4
	.globl	s_pop
	.type	s_pop, @function
s_pop:
.LVL7:
.LFB53:
	.loc 1 24 26 is_stmt 1 view -0
	.cfi_startproc
	.loc 1 24 26 is_stmt 0 view .LVU21
	endbr64
	.loc 1 25 3 is_stmt 1 view .LVU22
	.loc 1 25 17 is_stmt 0 view .LVU23
	movl	8(%rdi), %eax
	.loc 1 25 11 view .LVU24
	movq	(%rdi), %rdx
	.loc 1 25 17 view .LVU25
	subl	$1, %eax
	.loc 1 25 16 view .LVU26
	movl	%eax, 8(%rdi)
	.loc 1 25 17 view .LVU27
	cltq
	.loc 1 25 16 view .LVU28
	movl	(%rdx,%rax,4), %eax
	.loc 1 26 1 view .LVU29
	ret
	.cfi_endproc
.LFE53:
	.size	s_pop, .-s_pop
	.p2align 4
	.globl	s_isempty
	.type	s_isempty, @function
s_isempty:
.LVL8:
.LFB54:
	.loc 1 28 28 is_stmt 1 view -0
	.cfi_startproc
	.loc 1 28 28 is_stmt 0 view .LVU31
	endbr64
	.loc 1 29 3 is_stmt 1 view .LVU32
	.loc 1 29 18 is_stmt 0 view .LVU33
	movl	8(%rdi), %edx
	xorl	%eax, %eax
	testl	%edx, %edx
	sete	%al
	.loc 1 30 1 view .LVU34
	ret
	.cfi_endproc
.LFE54:
	.size	s_isempty, .-s_isempty
	.p2align 4
	.globl	s_peek
	.type	s_peek, @function
s_peek:
.LVL9:
.LFB55:
	.loc 1 32 27 is_stmt 1 view -0
	.cfi_startproc
	.loc 1 32 27 is_stmt 0 view .LVU36
	endbr64
	.loc 1 33 3 is_stmt 1 view .LVU37
.LVL10:
.LBB70:
.LBI70:
	.loc 1 28 5 view .LVU38
.LBB71:
	.loc 1 29 3 view .LVU39
	.loc 1 29 11 is_stmt 0 view .LVU40
	movslq	8(%rdi), %rax
.LVL11:
	.loc 1 29 11 view .LVU41
.LBE71:
.LBE70:
	.loc 1 33 6 view .LVU42
	testl	%eax, %eax
	je	.L7
	.loc 1 35 3 is_stmt 1 view .LVU43
	.loc 1 35 16 is_stmt 0 view .LVU44
	movq	(%rdi), %rdx
	movl	-4(%rdx,%rax,4), %eax
.L7:
	.loc 1 36 1 view .LVU45
	ret
	.cfi_endproc
.LFE55:
	.size	s_peek, .-s_peek
	.p2align 4
	.globl	create_dpda
	.type	create_dpda, @function
create_dpda:
.LVL12:
.LFB56:
	.loc 1 45 34 is_stmt 1 view -0
	.cfi_startproc
	.loc 1 45 34 is_stmt 0 view .LVU47
	endbr64
	.loc 1 46 5 is_stmt 1 view .LVU48
	.loc 1 45 34 is_stmt 0 view .LVU49
	pushq	%rbx
	.cfi_def_cfa_offset 16
	.cfi_offset 3, -16
	.loc 1 45 34 view .LVU50
	movl	%edi, %ebx
	.loc 1 46 25 view .LVU51
	movl	$4, %edi
.LVL13:
	.loc 1 46 25 view .LVU52
	call	malloc@PLT
.LVL14:
	.loc 1 48 5 is_stmt 1 view .LVU53
	.loc 1 48 19 is_stmt 0 view .LVU54
	movl	%ebx, (%rax)
	.loc 1 51 5 is_stmt 1 view .LVU55
	.loc 1 52 1 is_stmt 0 view .LVU56
	popq	%rbx
	.cfi_def_cfa_offset 8
.LVL15:
	.loc 1 52 1 view .LVU57
	ret
	.cfi_endproc
.LFE56:
	.size	create_dpda, .-create_dpda
	.p2align 4
	.globl	dpda_new_ctx
	.type	dpda_new_ctx, @function
dpda_new_ctx:
.LVL16:
.LFB57:
	.loc 1 62 63 is_stmt 1 view -0
	.cfi_startproc
	.loc 1 62 63 is_stmt 0 view .LVU59
	endbr64
	.loc 1 63 5 is_stmt 1 view .LVU60
	.loc 1 62 63 is_stmt 0 view .LVU61
	pushq	%r12
	.cfi_def_cfa_offset 16
	.cfi_offset 12, -16
	pushq	%rbp
	.cfi_def_cfa_offset 24
	.cfi_offset 6, -24
	movq	%rsi, %rbp
	pushq	%rbx
	.cfi_def_cfa_offset 32
	.cfi_offset 3, -32
	.loc 1 62 63 view .LVU62
	movq	%rdi, %rbx
	.loc 1 63 28 view .LVU63
	movl	$40, %edi
.LVL17:
	.loc 1 63 28 view .LVU64
	call	malloc@PLT
.LVL18:
	.loc 1 67 18 view .LVU65
	movq	%rbp, %rdi
	.loc 1 65 15 view .LVU66
	movq	%rbx, (%rax)
	.loc 1 63 28 view .LVU67
	movq	%rax, %r12
.LVL19:
	.loc 1 65 5 is_stmt 1 view .LVU68
	.loc 1 66 5 view .LVU69
	.loc 1 66 16 is_stmt 0 view .LVU70
	movl	(%rbx), %eax
.LVL20:
	.loc 1 66 16 view .LVU71
	movl	%eax, 8(%r12)
	.loc 1 67 5 is_stmt 1 view .LVU72
	.loc 1 67 18 is_stmt 0 view .LVU73
	call	strdup@PLT
.LVL21:
.LBB72:
.LBB73:
	.loc 1 16 10 view .LVU74
	movl	$16, %esi
	movl	$1, %edi
.LBE73:
.LBE72:
	.loc 1 67 16 view .LVU75
	movq	%rax, 24(%r12)
	.loc 1 68 5 is_stmt 1 view .LVU76
.LBB75:
.LBI72:
	.loc 1 15 10 view .LVU77
.LBB74:
	.loc 1 16 3 view .LVU78
	.loc 1 16 10 is_stmt 0 view .LVU79
	call	calloc@PLT
.LVL22:
.LBE74:
.LBE75:
	.loc 1 72 1 view .LVU80
	popq	%rbx
	.cfi_def_cfa_offset 24
.LVL23:
	.loc 1 72 1 view .LVU81
	popq	%rbp
	.cfi_def_cfa_offset 16
.LVL24:
	.loc 1 69 17 view .LVU82
	movl	$0, 32(%r12)
	.loc 1 68 16 view .LVU83
	movq	%rax, 16(%r12)
	.loc 1 69 5 is_stmt 1 view .LVU84
	.loc 1 71 5 view .LVU85
	.loc 1 72 1 is_stmt 0 view .LVU86
	movq	%r12, %rax
	popq	%r12
	.cfi_def_cfa_offset 8
.LVL25:
	.loc 1 72 1 view .LVU87
	ret
	.cfi_endproc
.LFE57:
	.size	dpda_new_ctx, .-dpda_new_ctx
	.p2align 4
	.globl	is_terminal
	.type	is_terminal, @function
is_terminal:
.LVL26:
.LFB58:
	.loc 1 74 27 is_stmt 1 view -0
	.cfi_startproc
	.loc 1 74 27 is_stmt 0 view .LVU89
	endbr64
	.loc 1 75 5 is_stmt 1 view .LVU90
	leal	-40(%rdi), %ecx
	cmpb	$57, %cl
	ja	.L18
	movabsq	$144115188075855883, %rax
	shrq	%cl, %rax
	andl	$1, %eax
	ret
	.p2align 4,,10
	.p2align 3
.L18:
	.loc 1 74 27 is_stmt 0 view .LVU91
	xorl	%eax, %eax
	.loc 1 76 1 view .LVU92
	ret
	.cfi_endproc
.LFE58:
	.size	is_terminal, .-is_terminal
	.section	.rodata.str1.1,"aMS",@progbits,1
.LC0:
	.string	"push S"
.LC1:
	.string	"top: %c\n"
.LC2:
	.string	"ch: %c\n"
.LC3:
	.string	"ch == top"
.LC4:
	.string	"pop"
.LC5:
	.string	"top after pop: %c\n"
.LC6:
	.string	"ch at end of while: %c\n"
.LC7:
	.string	"top is terminal: %c\n"
	.text
	.p2align 4
	.globl	run_top_down_parser
	.type	run_top_down_parser, @function
run_top_down_parser:
.LVL27:
.LFB59:
	.loc 1 78 47 is_stmt 1 view -0
	.cfi_startproc
	.loc 1 78 47 is_stmt 0 view .LVU94
	endbr64
	.loc 1 81 2 is_stmt 1 view .LVU95
	.loc 1 78 47 is_stmt 0 view .LVU96
	pushq	%r15
	.cfi_def_cfa_offset 16
	.cfi_offset 15, -16
	pushq	%r14
	.cfi_def_cfa_offset 24
	.cfi_offset 14, -24
	pushq	%r13
	.cfi_def_cfa_offset 32
	.cfi_offset 13, -32
	pushq	%r12
	.cfi_def_cfa_offset 40
	.cfi_offset 12, -40
	pushq	%rbp
	.cfi_def_cfa_offset 48
	.cfi_offset 6, -48
	pushq	%rbx
	.cfi_def_cfa_offset 56
	.cfi_offset 3, -56
	movq	%rdi, %rbx
	subq	$8, %rsp
	.cfi_def_cfa_offset 64
	.loc 1 81 2 view .LVU97
	movq	16(%rdi), %rbp
.LVL28:
.LBB135:
.LBI135:
	.loc 1 19 6 is_stmt 1 view .LVU98
.LBB136:
	.loc 1 20 3 view .LVU99
	.loc 1 20 36 is_stmt 0 view .LVU100
	movl	8(%rbp), %eax
	.loc 1 20 12 view .LVU101
	movq	0(%rbp), %rdi
.LVL29:
	.loc 1 20 36 view .LVU102
	leal	1(%rax), %esi
	movslq	%esi, %rsi
	.loc 1 20 12 view .LVU103
	salq	$2, %rsi
	call	realloc@PLT
.LVL30:
	.loc 1 21 11 view .LVU104
	movslq	8(%rbp), %rdx
.LBE136:
.LBE135:
.LBB138:
.LBB139:
	.file 2 "/usr/include/x86_64-linux-gnu/bits/stdio2.h"
	.loc 2 112 10 view .LVU105
	leaq	.LC0(%rip), %rdi
.LBE139:
.LBE138:
.LBB141:
.LBB137:
	.loc 1 20 10 view .LVU106
	movq	%rax, 0(%rbp)
	.loc 1 21 3 is_stmt 1 view .LVU107
	.loc 1 21 17 is_stmt 0 view .LVU108
	leal	1(%rdx), %ecx
	movl	%ecx, 8(%rbp)
	.loc 1 21 21 view .LVU109
	movl	$83, (%rax,%rdx,4)
.LVL31:
	.loc 1 21 21 view .LVU110
.LBE137:
.LBE141:
	.loc 1 82 2 is_stmt 1 view .LVU111
.LBB142:
.LBI138:
	.loc 2 110 1 view .LVU112
.LBB140:
	.loc 2 112 3 view .LVU113
	.loc 2 112 10 is_stmt 0 view .LVU114
	call	puts@PLT
.LVL32:
.LBE140:
.LBE142:
.LBB143:
	.loc 1 88 14 view .LVU115
	movq	16(%rbx), %rax
.LBB144:
.LBB145:
.LBB146:
.LBB147:
	.loc 1 29 11 view .LVU116
	movl	8(%rax), %edx
.LVL33:
.L37:
	.loc 1 29 11 view .LVU117
.LBE147:
.LBE146:
.LBE145:
.LBE144:
.LBE143:
	.loc 1 85 32 is_stmt 1 view .LVU118
	.loc 1 85 22 is_stmt 0 view .LVU119
	movslq	32(%rbx), %rcx
	.loc 1 85 18 view .LVU120
	movq	24(%rbx), %rsi
	.loc 1 85 32 view .LVU121
	cmpb	$0, (%rsi,%rcx)
	je	.L46
.LBB272:
	.loc 1 88 3 is_stmt 1 view .LVU122
.LVL34:
.LBB160:
.LBI144:
	.loc 1 32 7 view .LVU123
.LBB156:
	.loc 1 33 3 view .LVU124
.LBB152:
.LBI146:
	.loc 1 28 5 view .LVU125
.LBB148:
	.loc 1 29 3 view .LVU126
	.loc 1 29 3 is_stmt 0 view .LVU127
.LBE148:
.LBE152:
	xorl	%r15d, %r15d
	.loc 1 33 6 view .LVU128
	testl	%edx, %edx
	je	.L21
	.loc 1 35 3 is_stmt 1 view .LVU129
	.loc 1 35 16 is_stmt 0 view .LVU130
	movq	(%rax), %rax
	.loc 1 35 18 view .LVU131
	movslq	%edx, %rdx
.LBE156:
.LBE160:
	.loc 1 88 8 view .LVU132
	movl	-4(%rax,%rdx,4), %edx
	movl	%edx, %r15d
	.loc 1 89 3 view .LVU133
	movsbl	%dl, %edx
.L21:
.LVL35:
	.loc 1 89 3 is_stmt 1 view .LVU134
.LBB161:
.LBI161:
	.loc 2 110 1 view .LVU135
.LBB162:
	.loc 2 112 3 view .LVU136
	.loc 2 112 10 is_stmt 0 view .LVU137
	leaq	.LC1(%rip), %rsi
	movl	$1, %edi
	xorl	%eax, %eax
	call	__printf_chk@PLT
.LVL36:
	.loc 2 112 10 view .LVU138
.LBE162:
.LBE161:
	.loc 1 90 3 is_stmt 1 view .LVU139
	.loc 1 90 27 is_stmt 0 view .LVU140
	movslq	32(%rbx), %rax
	.loc 1 90 8 view .LVU141
	movq	24(%rbx), %rdx
.LBB163:
.LBB164:
	.loc 2 112 10 view .LVU142
	leaq	.LC2(%rip), %rsi
	movl	$1, %edi
.LBE164:
.LBE163:
.LBB167:
.LBB168:
	leaq	.LC7(%rip), %r12
.LBE168:
.LBE167:
.LBB170:
.LBB171:
	leaq	.LC3(%rip), %r14
.LBE171:
.LBE170:
	.loc 1 90 8 view .LVU143
	movsbl	(%rdx,%rax), %edx
.LBB174:
.LBB165:
	.loc 2 112 10 view .LVU144
	xorl	%eax, %eax
.LBE165:
.LBE174:
.LBB175:
.LBB176:
	leaq	.LC4(%rip), %r13
.LBE176:
.LBE175:
	.loc 1 90 8 view .LVU145
	movl	%edx, %ebp
.LVL37:
	.loc 1 91 3 is_stmt 1 view .LVU146
.LBB179:
.LBI163:
	.loc 2 110 1 view .LVU147
.LBB166:
	.loc 2 112 3 view .LVU148
	.loc 2 112 10 is_stmt 0 view .LVU149
	call	__printf_chk@PLT
.LVL38:
	.loc 2 112 10 view .LVU150
.LBE166:
.LBE179:
	.loc 1 92 9 is_stmt 1 view .LVU151
	leal	-40(%r15), %eax
	movsbl	%r15b, %edx
.LVL39:
	.loc 1 92 9 is_stmt 0 view .LVU152
	cmpb	$57, %al
	ja	.L24
	.p2align 4,,10
	.p2align 3
.L48:
	.loc 1 92 9 view .LVU153
	movabsq	$144115188075855883, %rcx
	btq	%rax, %rcx
	jc	.L47
.LVL40:
	.loc 1 111 3 is_stmt 1 view .LVU154
	cmpb	$80, %r15b
	jne	.L24
	.loc 1 136 5 view .LVU155
	cmpb	$41, %bpl
	je	.L33
	.loc 1 136 5 is_stmt 0 view .LVU156
	cmpb	$43, %bpl
	je	.L32
	testb	%bpl, %bpl
	je	.L33
	.p2align 4,,10
	.p2align 3
.L45:
	.loc 1 101 12 view .LVU157
	xorl	%eax, %eax
.LVL41:
.L19:
	.loc 1 101 12 view .LVU158
.LBE272:
	.loc 1 156 1 view .LVU159
	addq	$8, %rsp
	.cfi_remember_state
	.cfi_def_cfa_offset 56
	popq	%rbx
	.cfi_def_cfa_offset 48
.LVL42:
	.loc 1 156 1 view .LVU160
	popq	%rbp
	.cfi_def_cfa_offset 40
	popq	%r12
	.cfi_def_cfa_offset 32
	popq	%r13
	.cfi_def_cfa_offset 24
	popq	%r14
	.cfi_def_cfa_offset 16
	popq	%r15
	.cfi_def_cfa_offset 8
	ret
.LVL43:
	.p2align 4,,10
	.p2align 3
.L47:
	.cfi_restore_state
.LBB273:
	.loc 1 93 4 is_stmt 1 view .LVU161
.LBB180:
.LBI167:
	.loc 2 110 1 view .LVU162
.LBB169:
	.loc 2 112 3 view .LVU163
	.loc 2 112 10 is_stmt 0 view .LVU164
	xorl	%eax, %eax
	movq	%r12, %rsi
	movl	$1, %edi
	call	__printf_chk@PLT
.LVL44:
	.loc 2 112 10 view .LVU165
.LBE169:
.LBE180:
	.loc 1 94 4 is_stmt 1 view .LVU166
	.loc 1 94 6 is_stmt 0 view .LVU167
	cmpb	%bpl, %r15b
	jne	.L45
	.loc 1 95 5 is_stmt 1 view .LVU168
.LVL45:
.LBB181:
.LBI170:
	.loc 2 110 1 view .LVU169
.LBB172:
	.loc 2 112 3 view .LVU170
	.loc 2 112 10 is_stmt 0 view .LVU171
	movq	%r14, %rdi
.LBE172:
.LBE181:
.LBB182:
.LBB183:
	xorl	%r15d, %r15d
.LVL46:
	.loc 2 112 10 view .LVU172
.LBE183:
.LBE182:
.LBB187:
.LBB173:
	call	puts@PLT
.LVL47:
	.loc 2 112 10 view .LVU173
.LBE173:
.LBE187:
	.loc 1 96 5 is_stmt 1 view .LVU174
	movq	16(%rbx), %rax
.LVL48:
.LBB188:
.LBI188:
	.loc 1 24 7 view .LVU175
.LBB189:
	.loc 1 25 3 view .LVU176
.LBE189:
.LBE188:
.LBB191:
.LBB177:
	.loc 2 112 10 is_stmt 0 view .LVU177
	movq	%r13, %rdi
.LBE177:
.LBE191:
.LBB192:
.LBB190:
	.loc 1 25 17 view .LVU178
	subl	$1, 8(%rax)
.LVL49:
	.loc 1 25 17 view .LVU179
.LBE190:
.LBE192:
	.loc 1 97 5 is_stmt 1 view .LVU180
.LBB193:
.LBI175:
	.loc 2 110 1 view .LVU181
.LBB178:
	.loc 2 112 3 view .LVU182
	.loc 2 112 10 is_stmt 0 view .LVU183
	call	puts@PLT
.LVL50:
	.loc 2 112 10 view .LVU184
.LBE178:
.LBE193:
	.loc 1 98 5 is_stmt 1 view .LVU185
	.loc 1 98 11 is_stmt 0 view .LVU186
	movq	16(%rbx), %rax
.LVL51:
.LBB194:
.LBI182:
	.loc 1 32 7 is_stmt 1 view .LVU187
.LBB186:
	.loc 1 33 3 view .LVU188
.LBB184:
.LBI184:
	.loc 1 28 5 view .LVU189
.LBB185:
	.loc 1 29 3 view .LVU190
	.loc 1 29 11 is_stmt 0 view .LVU191
	movslq	8(%rax), %rdx
.LVL52:
	.loc 1 29 11 view .LVU192
.LBE185:
.LBE184:
	.loc 1 33 6 view .LVU193
	testl	%edx, %edx
	je	.L23
	.loc 1 35 3 is_stmt 1 view .LVU194
	.loc 1 35 16 is_stmt 0 view .LVU195
	movq	(%rax), %rax
.LVL53:
	.loc 1 35 16 view .LVU196
.LBE186:
.LBE194:
	.loc 1 98 9 view .LVU197
	movl	-4(%rax,%rdx,4), %edx
	movl	%edx, %r15d
	.loc 1 99 5 view .LVU198
	movsbl	%dl, %edx
.L23:
.LVL54:
	.loc 1 99 5 is_stmt 1 view .LVU199
.LBB195:
.LBI195:
	.loc 2 110 1 view .LVU200
.LBB196:
	.loc 2 112 3 view .LVU201
	.loc 2 112 10 is_stmt 0 view .LVU202
	leaq	.LC5(%rip), %rsi
	movl	$1, %edi
	xorl	%eax, %eax
	call	__printf_chk@PLT
.LVL55:
	.loc 2 112 10 view .LVU203
.LBE196:
.LBE195:
	.loc 1 104 4 is_stmt 1 view .LVU204
	.loc 1 104 15 is_stmt 0 view .LVU205
	movl	32(%rbx), %eax
	.loc 1 105 7 view .LVU206
	movq	24(%rbx), %rdx
.LBB197:
.LBB198:
	.loc 2 112 10 view .LVU207
	leaq	.LC6(%rip), %rsi
	movl	$1, %edi
.LBE198:
.LBE197:
	.loc 1 104 15 view .LVU208
	addl	$1, %eax
	movl	%eax, 32(%rbx)
	.loc 1 105 4 is_stmt 1 view .LVU209
	.loc 1 105 23 is_stmt 0 view .LVU210
	cltq
	.loc 1 105 7 view .LVU211
	movsbl	(%rdx,%rax), %edx
.LBB201:
.LBB199:
	.loc 2 112 10 view .LVU212
	xorl	%eax, %eax
.LBE199:
.LBE201:
	.loc 1 105 7 view .LVU213
	movl	%edx, %ebp
.LVL56:
	.loc 1 106 4 is_stmt 1 view .LVU214
.LBB202:
.LBI197:
	.loc 2 110 1 view .LVU215
.LBB200:
	.loc 2 112 3 view .LVU216
	.loc 2 112 10 is_stmt 0 view .LVU217
	call	__printf_chk@PLT
.LVL57:
	.loc 2 112 10 view .LVU218
.LBE200:
.LBE202:
	.loc 1 92 9 is_stmt 1 view .LVU219
	leal	-40(%r15), %eax
	movsbl	%r15b, %edx
.LVL58:
	.loc 1 92 9 is_stmt 0 view .LVU220
	cmpb	$57, %al
	jbe	.L48
.LVL59:
.L24:
	.loc 1 111 3 view .LVU221
	cmpb	$83, %r15b
	je	.L36
	.loc 1 116 7 view .LVU222
	movq	16(%rbx), %rax
.LBB203:
.LBB204:
	.loc 1 25 20 view .LVU223
	movl	8(%rax), %edx
	jmp	.L37
	.p2align 4,,10
	.p2align 3
.L36:
	.loc 1 25 20 view .LVU224
.LBE204:
.LBE203:
	.loc 1 113 5 is_stmt 1 view .LVU225
	cmpb	$40, %bpl
	je	.L27
	.loc 1 113 5 is_stmt 0 view .LVU226
	cmpb	$97, %bpl
	jne	.L45
	.loc 1 125 7 is_stmt 1 view .LVU227
	movq	16(%rbx), %rbp
.LVL60:
.LBB208:
.LBI208:
	.loc 1 24 7 view .LVU228
.LBB209:
	.loc 1 25 3 view .LVU229
	.loc 1 25 20 is_stmt 0 view .LVU230
	movslq	8(%rbp), %rax
.LBE209:
.LBE208:
.LBB212:
.LBB213:
	.loc 1 20 12 view .LVU231
	movq	0(%rbp), %rdi
.LBE213:
.LBE212:
.LBB217:
.LBB210:
	.loc 1 25 17 view .LVU232
	leal	-1(%rax), %edx
.LBE210:
.LBE217:
.LBB218:
.LBB214:
	.loc 1 20 12 view .LVU233
	leaq	0(,%rax,4), %rsi
.LBE214:
.LBE218:
.LBB219:
.LBB211:
	.loc 1 25 17 view .LVU234
	movl	%edx, 8(%rbp)
.LVL61:
	.loc 1 25 17 view .LVU235
.LBE211:
.LBE219:
	.loc 1 126 7 is_stmt 1 view .LVU236
.LBB220:
.LBI212:
	.loc 1 19 6 view .LVU237
.LBB215:
	.loc 1 20 3 view .LVU238
	.loc 1 20 12 is_stmt 0 view .LVU239
	call	realloc@PLT
.LVL62:
	.loc 1 21 11 view .LVU240
	movslq	8(%rbp), %rdx
	.loc 1 20 10 view .LVU241
	movq	%rax, 0(%rbp)
	.loc 1 21 3 is_stmt 1 view .LVU242
	.loc 1 21 17 is_stmt 0 view .LVU243
	leal	1(%rdx), %ecx
	movl	%ecx, 8(%rbp)
.LBE215:
.LBE220:
	.loc 1 127 7 view .LVU244
	movq	16(%rbx), %rbp
.LVL63:
.LBB221:
.LBB216:
	.loc 1 21 21 view .LVU245
	movl	$80, (%rax,%rdx,4)
.LVL64:
	.loc 1 21 21 view .LVU246
.LBE216:
.LBE221:
	.loc 1 127 7 is_stmt 1 view .LVU247
.LBB222:
.LBI222:
	.loc 1 19 6 view .LVU248
.LBB223:
	.loc 1 20 3 view .LVU249
	.loc 1 20 36 is_stmt 0 view .LVU250
	movl	8(%rbp), %eax
	.loc 1 20 12 view .LVU251
	movq	0(%rbp), %rdi
	.loc 1 20 36 view .LVU252
	leal	1(%rax), %esi
	movslq	%esi, %rsi
	.loc 1 20 12 view .LVU253
	salq	$2, %rsi
	call	realloc@PLT
.LVL65:
	.loc 1 21 11 view .LVU254
	movslq	8(%rbp), %rdx
	.loc 1 20 10 view .LVU255
	movq	%rax, 0(%rbp)
	.loc 1 21 3 is_stmt 1 view .LVU256
	.loc 1 21 17 is_stmt 0 view .LVU257
	leal	1(%rdx), %ecx
	movl	%ecx, 8(%rbp)
	.loc 1 21 21 view .LVU258
	movl	$97, (%rax,%rdx,4)
.LBE223:
.LBE222:
	.loc 1 88 14 view .LVU259
	movq	16(%rbx), %rax
.LBB225:
.LBB157:
.LBB153:
.LBB149:
	.loc 1 29 11 view .LVU260
	movl	8(%rax), %edx
.LBE149:
.LBE153:
.LBE157:
.LBE225:
.LBB226:
.LBB224:
	.loc 1 22 1 view .LVU261
	jmp	.L37
.LVL66:
	.p2align 4,,10
	.p2align 3
.L33:
	.loc 1 22 1 view .LVU262
.LBE224:
.LBE226:
	.loc 1 146 7 is_stmt 1 view .LVU263
	movq	16(%rbx), %rax
.LVL67:
.LBB227:
.LBI227:
	.loc 1 24 7 view .LVU264
.LBB228:
	.loc 1 25 3 view .LVU265
	.loc 1 25 17 is_stmt 0 view .LVU266
	movl	8(%rax), %ecx
	leal	-1(%rcx), %edx
	.loc 1 25 16 view .LVU267
	movl	%edx, 8(%rax)
	jmp	.L37
.LVL68:
.L27:
	.loc 1 25 16 view .LVU268
.LBE228:
.LBE227:
	.loc 1 116 7 is_stmt 1 view .LVU269
	movq	16(%rbx), %rbp
.LVL69:
.LBB229:
.LBI203:
	.loc 1 24 7 view .LVU270
.LBB205:
	.loc 1 25 3 view .LVU271
	.loc 1 25 20 is_stmt 0 view .LVU272
	movslq	8(%rbp), %rax
.LBE205:
.LBE229:
.LBB230:
.LBB231:
	.loc 1 20 12 view .LVU273
	movq	0(%rbp), %rdi
.LBE231:
.LBE230:
.LBB235:
.LBB206:
	.loc 1 25 17 view .LVU274
	leal	-1(%rax), %edx
.LBE206:
.LBE235:
.LBB236:
.LBB232:
	.loc 1 20 12 view .LVU275
	leaq	0(,%rax,4), %rsi
.LBE232:
.LBE236:
.LBB237:
.LBB207:
	.loc 1 25 17 view .LVU276
	movl	%edx, 8(%rbp)
.LVL70:
	.loc 1 25 17 view .LVU277
.LBE207:
.LBE237:
	.loc 1 117 7 is_stmt 1 view .LVU278
.LBB238:
.LBI230:
	.loc 1 19 6 view .LVU279
.LBB233:
	.loc 1 20 3 view .LVU280
	.loc 1 20 12 is_stmt 0 view .LVU281
	call	realloc@PLT
.LVL71:
	.loc 1 21 11 view .LVU282
	movslq	8(%rbp), %rdx
	.loc 1 20 10 view .LVU283
	movq	%rax, 0(%rbp)
	.loc 1 21 3 is_stmt 1 view .LVU284
	.loc 1 21 17 is_stmt 0 view .LVU285
	leal	1(%rdx), %ecx
	movl	%ecx, 8(%rbp)
.LBE233:
.LBE238:
	.loc 1 118 7 view .LVU286
	movq	16(%rbx), %rbp
.LVL72:
.LBB239:
.LBB234:
	.loc 1 21 21 view .LVU287
	movl	$80, (%rax,%rdx,4)
.LVL73:
	.loc 1 21 21 view .LVU288
.LBE234:
.LBE239:
	.loc 1 118 7 is_stmt 1 view .LVU289
.LBB240:
.LBI240:
	.loc 1 19 6 view .LVU290
.LBB241:
	.loc 1 20 3 view .LVU291
	.loc 1 20 36 is_stmt 0 view .LVU292
	movl	8(%rbp), %eax
	.loc 1 20 12 view .LVU293
	movq	0(%rbp), %rdi
	.loc 1 20 36 view .LVU294
	leal	1(%rax), %esi
	movslq	%esi, %rsi
	.loc 1 20 12 view .LVU295
	salq	$2, %rsi
	call	realloc@PLT
.LVL74:
	.loc 1 21 11 view .LVU296
	movslq	8(%rbp), %rdx
	.loc 1 20 10 view .LVU297
	movq	%rax, 0(%rbp)
	.loc 1 21 3 is_stmt 1 view .LVU298
	.loc 1 21 17 is_stmt 0 view .LVU299
	leal	1(%rdx), %ecx
	movl	%ecx, 8(%rbp)
.LBE241:
.LBE240:
	.loc 1 119 7 view .LVU300
	movq	16(%rbx), %rbp
.LVL75:
.LBB243:
.LBB242:
	.loc 1 21 21 view .LVU301
	movl	$41, (%rax,%rdx,4)
.LVL76:
	.loc 1 21 21 view .LVU302
.LBE242:
.LBE243:
	.loc 1 119 7 is_stmt 1 view .LVU303
.LBB244:
.LBI244:
	.loc 1 19 6 view .LVU304
.LBB245:
	.loc 1 20 3 view .LVU305
	.loc 1 20 36 is_stmt 0 view .LVU306
	movl	8(%rbp), %eax
	.loc 1 20 12 view .LVU307
	movq	0(%rbp), %rdi
	.loc 1 20 36 view .LVU308
	leal	1(%rax), %esi
	movslq	%esi, %rsi
	.loc 1 20 12 view .LVU309
	salq	$2, %rsi
	call	realloc@PLT
.LVL77:
	.loc 1 21 11 view .LVU310
	movslq	8(%rbp), %rdx
	.loc 1 20 10 view .LVU311
	movq	%rax, 0(%rbp)
	.loc 1 21 3 is_stmt 1 view .LVU312
	.loc 1 21 17 is_stmt 0 view .LVU313
	leal	1(%rdx), %ecx
	movl	%ecx, 8(%rbp)
.LBE245:
.LBE244:
	.loc 1 120 7 view .LVU314
	movq	16(%rbx), %rbp
.LVL78:
.LBB247:
.LBB246:
	.loc 1 21 21 view .LVU315
	movl	$83, (%rax,%rdx,4)
.LVL79:
	.loc 1 21 21 view .LVU316
.LBE246:
.LBE247:
	.loc 1 120 7 is_stmt 1 view .LVU317
.LBB248:
.LBI248:
	.loc 1 19 6 view .LVU318
.LBB249:
	.loc 1 20 3 view .LVU319
	.loc 1 20 36 is_stmt 0 view .LVU320
	movl	8(%rbp), %eax
	.loc 1 20 12 view .LVU321
	movq	0(%rbp), %rdi
	.loc 1 20 36 view .LVU322
	leal	1(%rax), %esi
	movslq	%esi, %rsi
	.loc 1 20 12 view .LVU323
	salq	$2, %rsi
	call	realloc@PLT
.LVL80:
	.loc 1 21 11 view .LVU324
	movslq	8(%rbp), %rdx
	.loc 1 20 10 view .LVU325
	movq	%rax, 0(%rbp)
	.loc 1 21 3 is_stmt 1 view .LVU326
	.loc 1 21 17 is_stmt 0 view .LVU327
	leal	1(%rdx), %ecx
	movl	%ecx, 8(%rbp)
	.loc 1 21 21 view .LVU328
	movl	$40, (%rax,%rdx,4)
.LBE249:
.LBE248:
	.loc 1 88 14 view .LVU329
	movq	16(%rbx), %rax
.LBB251:
.LBB158:
.LBB154:
.LBB150:
	.loc 1 29 11 view .LVU330
	movl	8(%rax), %edx
.LBE150:
.LBE154:
.LBE158:
.LBE251:
.LBB252:
.LBB250:
	.loc 1 22 1 view .LVU331
	jmp	.L37
.LVL81:
.L32:
	.loc 1 22 1 view .LVU332
.LBE250:
.LBE252:
	.loc 1 141 7 is_stmt 1 view .LVU333
	movq	16(%rbx), %rbp
.LVL82:
.LBB253:
.LBI253:
	.loc 1 24 7 view .LVU334
.LBB254:
	.loc 1 25 3 view .LVU335
	.loc 1 25 20 is_stmt 0 view .LVU336
	movslq	8(%rbp), %rax
.LBE254:
.LBE253:
.LBB257:
.LBB258:
	.loc 1 20 12 view .LVU337
	movq	0(%rbp), %rdi
.LBE258:
.LBE257:
.LBB262:
.LBB255:
	.loc 1 25 17 view .LVU338
	leal	-1(%rax), %edx
.LBE255:
.LBE262:
.LBB263:
.LBB259:
	.loc 1 20 12 view .LVU339
	leaq	0(,%rax,4), %rsi
.LBE259:
.LBE263:
.LBB264:
.LBB256:
	.loc 1 25 17 view .LVU340
	movl	%edx, 8(%rbp)
.LVL83:
	.loc 1 25 17 view .LVU341
.LBE256:
.LBE264:
	.loc 1 142 7 is_stmt 1 view .LVU342
.LBB265:
.LBI257:
	.loc 1 19 6 view .LVU343
.LBB260:
	.loc 1 20 3 view .LVU344
	.loc 1 20 12 is_stmt 0 view .LVU345
	call	realloc@PLT
.LVL84:
	.loc 1 21 11 view .LVU346
	movslq	8(%rbp), %rdx
	.loc 1 20 10 view .LVU347
	movq	%rax, 0(%rbp)
	.loc 1 21 3 is_stmt 1 view .LVU348
	.loc 1 21 17 is_stmt 0 view .LVU349
	leal	1(%rdx), %ecx
	movl	%ecx, 8(%rbp)
.LBE260:
.LBE265:
	.loc 1 143 7 view .LVU350
	movq	16(%rbx), %rbp
.LVL85:
.LBB266:
.LBB261:
	.loc 1 21 21 view .LVU351
	movl	$83, (%rax,%rdx,4)
.LVL86:
	.loc 1 21 21 view .LVU352
.LBE261:
.LBE266:
	.loc 1 143 7 is_stmt 1 view .LVU353
.LBB267:
.LBI267:
	.loc 1 19 6 view .LVU354
.LBB268:
	.loc 1 20 3 view .LVU355
	.loc 1 20 36 is_stmt 0 view .LVU356
	movl	8(%rbp), %eax
	.loc 1 20 12 view .LVU357
	movq	0(%rbp), %rdi
	.loc 1 20 36 view .LVU358
	leal	1(%rax), %esi
	movslq	%esi, %rsi
	.loc 1 20 12 view .LVU359
	salq	$2, %rsi
	call	realloc@PLT
.LVL87:
	.loc 1 21 11 view .LVU360
	movslq	8(%rbp), %rdx
	.loc 1 20 10 view .LVU361
	movq	%rax, 0(%rbp)
	.loc 1 21 3 is_stmt 1 view .LVU362
	.loc 1 21 17 is_stmt 0 view .LVU363
	leal	1(%rdx), %ecx
	movl	%ecx, 8(%rbp)
	.loc 1 21 21 view .LVU364
	movl	$43, (%rax,%rdx,4)
.LBE268:
.LBE267:
	.loc 1 88 14 view .LVU365
	movq	16(%rbx), %rax
.LBB270:
.LBB159:
.LBB155:
.LBB151:
	.loc 1 29 11 view .LVU366
	movl	8(%rax), %edx
.LBE151:
.LBE155:
.LBE159:
.LBE270:
.LBB271:
.LBB269:
	.loc 1 22 1 view .LVU367
	jmp	.L37
.LVL88:
.L46:
	.loc 1 22 1 view .LVU368
.LBE269:
.LBE271:
.LBE273:
	.loc 1 155 5 is_stmt 1 view .LVU369
.LBB274:
.LBI274:
	.loc 1 28 5 view .LVU370
.LBB275:
	.loc 1 29 3 view .LVU371
	.loc 1 29 18 is_stmt 0 view .LVU372
	xorl	%eax, %eax
	testl	%edx, %edx
	sete	%al
.LVL89:
	.loc 1 29 18 view .LVU373
.LBE275:
.LBE274:
	.loc 1 155 12 view .LVU374
	jmp	.L19
	.cfi_endproc
.LFE59:
	.size	run_top_down_parser, .-run_top_down_parser
	.section	.rodata.str1.1
.LC8:
	.string	""
.LC9:
	.string	"NOT "
.LC10:
	.string	"Word %s was %saccepted\n"
	.section	.text.startup,"ax",@progbits
	.p2align 4
	.globl	main
	.type	main, @function
main:
.LVL90:
.LFB60:
	.loc 1 171 34 is_stmt 1 view -0
	.cfi_startproc
	.loc 1 171 34 is_stmt 0 view .LVU376
	endbr64
	.loc 1 172 5 is_stmt 1 view .LVU377
.LVL91:
.LBB276:
.LBI276:
	.loc 1 45 14 view .LVU378
.LBB277:
	.loc 1 46 5 view .LVU379
.LBE277:
.LBE276:
	.loc 1 171 34 is_stmt 0 view .LVU380
	pushq	%rbx
	.cfi_def_cfa_offset 16
	.cfi_offset 3, -16
.LBB281:
.LBB278:
	.loc 1 46 25 view .LVU381
	movl	$4, %edi
.LVL92:
	.loc 1 46 25 view .LVU382
.LBE278:
.LBE281:
	.loc 1 171 34 view .LVU383
	movq	%rsi, %rbx
.LBB282:
.LBB279:
	.loc 1 46 25 view .LVU384
	call	malloc@PLT
.LVL93:
	.loc 1 46 25 view .LVU385
.LBE279:
.LBE282:
	.loc 1 174 34 view .LVU386
	movq	8(%rbx), %rsi
.LBB283:
.LBB280:
	.loc 1 48 19 view .LVU387
	movl	$1, (%rax)
	.loc 1 46 25 view .LVU388
	movq	%rax, %rdi
.LVL94:
	.loc 1 48 5 is_stmt 1 view .LVU389
	.loc 1 51 5 view .LVU390
	.loc 1 51 5 is_stmt 0 view .LVU391
.LBE280:
.LBE283:
	.loc 1 174 5 is_stmt 1 view .LVU392
	.loc 1 174 34 is_stmt 0 view .LVU393
	call	dpda_new_ctx
.LVL95:
	.loc 1 175 18 view .LVU394
	movq	%rax, %rdi
	.loc 1 174 34 view .LVU395
	movq	%rax, %rbx
.LVL96:
	.loc 1 175 5 is_stmt 1 view .LVU396
	.loc 1 175 18 is_stmt 0 view .LVU397
	call	run_top_down_parser
.LVL97:
	.loc 1 177 5 is_stmt 1 view .LVU398
	leaq	.LC8(%rip), %rcx
.LBB284:
.LBB285:
	.loc 2 112 10 is_stmt 0 view .LVU399
	movq	24(%rbx), %rdx
	leaq	.LC10(%rip), %rsi
.LBE285:
.LBE284:
	.loc 1 177 5 view .LVU400
	testl	%eax, %eax
	leaq	.LC9(%rip), %rax
.LVL98:
.LBB288:
.LBB286:
	.loc 2 112 10 view .LVU401
	movl	$1, %edi
.LBE286:
.LBE288:
	.loc 1 177 5 view .LVU402
	cmove	%rax, %rcx
.LVL99:
.LBB289:
.LBI284:
	.loc 2 110 1 is_stmt 1 view .LVU403
.LBB287:
	.loc 2 112 3 view .LVU404
	.loc 2 112 10 is_stmt 0 view .LVU405
	xorl	%eax, %eax
	call	__printf_chk@PLT
.LVL100:
	.loc 2 112 10 view .LVU406
.LBE287:
.LBE289:
	.loc 1 178 1 view .LVU407
	xorl	%eax, %eax
	popq	%rbx
	.cfi_def_cfa_offset 8
.LVL101:
	.loc 1 178 1 view .LVU408
	ret
	.cfi_endproc
.LFE60:
	.size	main, .-main
	.text
.Letext0:
	.file 3 "/usr/lib/gcc/x86_64-linux-gnu/11/include/stddef.h"
	.file 4 "/usr/include/string.h"
	.file 5 "/usr/include/stdlib.h"
	.file 6 "<built-in>"
	.section	.note.GNU-stack,"",@progbits
	.section	.note.gnu.property,"a"
	.align 8
	.long	1f - 0f
	.long	4f - 1f
	.long	5
0:
	.string	"GNU"
1:
	.align 8
	.long	0xc0000002
	.long	3f - 2f
2:
	.long	0x3
3:
	.align 8
4:
