	.file	"main.c"
	.text
.Ltext0:
	.file 0 "/home/finn/Documents/OTH/CC/CompilerConstruction" "src/main.c"
	.p2align 4
	.globl	is_lower_string
	.type	is_lower_string, @function
is_lower_string:
.LVL0:
.LFB53:
	.file 1 "src/main.c"
	.loc 1 11 29 view -0
	.cfi_startproc
	.loc 1 11 29 is_stmt 0 view .LVU1
	endbr64
	.loc 1 13 2 is_stmt 1 view .LVU2
.LBB10:
	.loc 1 13 6 view .LVU3
.LVL1:
	.loc 1 13 19 view .LVU4
.LBE10:
	.loc 1 11 29 is_stmt 0 view .LVU5
	pushq	%rbp
	.cfi_def_cfa_offset 16
	.cfi_offset 6, -16
	pushq	%rbx
	.cfi_def_cfa_offset 24
	.cfi_offset 3, -24
	subq	$8, %rsp
	.cfi_def_cfa_offset 32
.LBB11:
	.loc 1 13 16 view .LVU6
	movsbq	(%rdi), %rbx
	.loc 1 13 19 view .LVU7
	testb	%bl, %bl
	je	.L4
	movq	%rdi, %rbp
	.loc 1 14 9 view .LVU8
	call	__ctype_b_loc@PLT
.LVL2:
	.loc 1 14 9 view .LVU9
	leaq	1(%rbp), %rdi
	.loc 1 14 8 view .LVU10
	movq	(%rax), %rax
	jmp	.L3
.LVL3:
	.p2align 4,,10
	.p2align 3
.L9:
	.loc 1 13 28 is_stmt 1 discriminator 2 view .LVU11
	.loc 1 13 19 discriminator 2 view .LVU12
	.loc 1 13 16 is_stmt 0 discriminator 2 view .LVU13
	movsbq	(%rdi), %rbx
	.loc 1 13 19 discriminator 2 view .LVU14
	addq	$1, %rdi
.LVL4:
	.loc 1 13 19 discriminator 2 view .LVU15
	testb	%bl, %bl
	je	.L4
.L3:
.LVL5:
	.loc 1 14 3 is_stmt 1 view .LVU16
	.loc 1 14 5 is_stmt 0 view .LVU17
	testb	$2, 1(%rax,%rbx,2)
	jne	.L9
.LBE11:
	.loc 1 19 1 view .LVU18
	addq	$8, %rsp
	.cfi_remember_state
	.cfi_def_cfa_offset 24
.LBB12:
	.loc 1 15 10 view .LVU19
	xorl	%eax, %eax
.LBE12:
	.loc 1 19 1 view .LVU20
	popq	%rbx
	.cfi_def_cfa_offset 16
	popq	%rbp
	.cfi_def_cfa_offset 8
.LVL6:
	.loc 1 19 1 view .LVU21
	ret
.LVL7:
	.p2align 4,,10
	.p2align 3
.L4:
	.cfi_restore_state
	.loc 1 19 1 view .LVU22
	addq	$8, %rsp
	.cfi_def_cfa_offset 24
	.loc 1 18 8 view .LVU23
	movl	$1, %eax
	.loc 1 19 1 view .LVU24
	popq	%rbx
	.cfi_def_cfa_offset 16
	popq	%rbp
	.cfi_def_cfa_offset 8
	ret
	.cfi_endproc
.LFE53:
	.size	is_lower_string, .-is_lower_string
	.p2align 4
	.globl	replace
	.type	replace, @function
replace:
.LVL8:
.LFB54:
	.loc 1 22 86 is_stmt 1 view -0
	.cfi_startproc
	.loc 1 22 86 is_stmt 0 view .LVU26
	endbr64
	.loc 1 25 2 is_stmt 1 view .LVU27
	.loc 1 27 2 view .LVU28
	.loc 1 22 86 is_stmt 0 view .LVU29
	pushq	%r15
	.cfi_def_cfa_offset 16
	.cfi_offset 15, -16
	pushq	%r14
	.cfi_def_cfa_offset 24
	.cfi_offset 14, -24
	pushq	%r13
	.cfi_def_cfa_offset 32
	.cfi_offset 13, -32
	movq	%rdi, %r13
	.loc 1 27 20 view .LVU30
	movq	%rdx, %rdi
.LVL9:
	.loc 1 22 86 view .LVU31
	pushq	%r12
	.cfi_def_cfa_offset 40
	.cfi_offset 12, -40
	pushq	%rbp
	.cfi_def_cfa_offset 48
	.cfi_offset 6, -48
	movq	%rsi, %rbp
	pushq	%rbx
	.cfi_def_cfa_offset 56
	.cfi_offset 3, -56
	subq	$56, %rsp
	.cfi_def_cfa_offset 112
	.loc 1 22 86 view .LVU32
	movq	%rdx, 40(%rsp)
	movl	%ecx, 16(%rsp)
	.loc 1 27 20 view .LVU33
	call	strlen@PLT
.LVL10:
	.loc 1 28 19 view .LVU34
	movq	%rbp, %rdi
	.loc 1 27 20 view .LVU35
	movq	%rax, %r15
	.loc 1 27 6 view .LVU36
	movl	%eax, 32(%rsp)
.LVL11:
	.loc 1 28 2 is_stmt 1 view .LVU37
	.loc 1 28 19 is_stmt 0 view .LVU38
	call	strlen@PLT
.LVL12:
	.loc 1 29 17 view .LVU39
	movq	%r13, %rdi
	.loc 1 28 19 view .LVU40
	movq	%rax, %rbx
	.loc 1 28 6 view .LVU41
	movl	%eax, 36(%rsp)
.LVL13:
	.loc 1 29 2 is_stmt 1 view .LVU42
	.loc 1 29 17 is_stmt 0 view .LVU43
	call	strlen@PLT
.LVL14:
	.loc 1 31 2 is_stmt 1 view .LVU44
	.loc 1 31 35 is_stmt 0 view .LVU45
	movq	%r15, 24(%rsp)
	leal	(%r15,%rax), %edi
	.loc 1 31 49 view .LVU46
	subl	%ebx, %edi
	.loc 1 31 62 view .LVU47
	addl	$1, %edi
	.loc 1 31 19 view .LVU48
	movslq	%edi, %rdi
	call	malloc@PLT
.LVL15:
	.loc 1 36 8 view .LVU49
	movzbl	0(%r13), %r15d
.LVL16:
	.loc 1 35 6 view .LVU50
	movb	$0, 23(%rsp)
	.loc 1 31 19 view .LVU51
	movq	%rax, %r12
.LVL17:
	.loc 1 33 2 is_stmt 1 view .LVU52
	.loc 1 34 2 view .LVU53
	.loc 1 35 1 view .LVU54
	.loc 1 36 2 view .LVU55
	.loc 1 36 8 view .LVU56
.LBB13:
.LBB14:
.LBB15:
	.file 2 "/usr/include/x86_64-linux-gnu/bits/string_fortified.h"
	.loc 2 79 10 is_stmt 0 view .LVU57
	movq	24(%rsp), %rax
.LVL18:
	.loc 2 79 10 view .LVU58
.LBE15:
.LBE14:
.LBE13:
	.loc 1 34 6 view .LVU59
	movl	$0, 12(%rsp)
.LBB20:
.LBB18:
.LBB16:
	.loc 2 79 10 view .LVU60
	addq	$1, %rax
	movq	%rax, 24(%rsp)
.LBE16:
.LBE18:
.LBE20:
	.loc 1 36 8 view .LVU61
	testb	%r15b, %r15b
	je	.L15
	xorl	%r14d, %r14d
	movl	%r15d, %eax
	movl	%r14d, %r15d
	movl	%eax, %r14d
	jmp	.L11
.LVL19:
	.p2align 4,,10
	.p2align 3
.L13:
.LBB21:
	.loc 1 47 4 is_stmt 1 view .LVU62
	.loc 1 47 23 is_stmt 0 view .LVU63
	addq	$1, %r13
.LVL20:
	.loc 1 47 16 view .LVU64
	movb	%r14b, (%rdi)
	.loc 1 47 12 view .LVU65
	addl	$1, %r15d
.LVL21:
	.loc 1 47 12 view .LVU66
.LBE21:
	.loc 1 36 8 is_stmt 1 view .LVU67
	movzbl	0(%r13), %r14d
	testb	%r14b, %r14b
	je	.L25
.LVL22:
.L11:
.LBB22:
	.loc 1 38 3 view .LVU68
	movq	%r13, %rdi
	movq	%rbx, %rdx
	movq	%rbp, %rsi
	call	strncmp@PLT
.LVL23:
	.loc 1 40 3 view .LVU69
	.loc 1 41 4 is_stmt 0 view .LVU70
	movslq	%r15d, %rdi
	addq	%r12, %rdi
	.loc 1 40 5 view .LVU71
	testl	%eax, %eax
	jne	.L13
	.loc 1 40 35 discriminator 1 view .LVU72
	movl	12(%rsp), %eax
	.loc 1 40 18 discriminator 1 view .LVU73
	cmpl	%eax, 16(%rsp)
	.loc 1 40 35 discriminator 1 view .LVU74
	leal	1(%rax), %r9d
.LVL24:
	.loc 1 40 35 discriminator 1 view .LVU75
	movl	%r9d, 12(%rsp)
	.loc 1 40 18 discriminator 1 view .LVU76
	jne	.L13
	.loc 1 41 4 is_stmt 1 view .LVU77
.LVL25:
.LBB19:
.LBI14:
	.loc 2 77 42 view .LVU78
.LBB17:
	.loc 2 79 3 view .LVU79
	.loc 2 79 10 is_stmt 0 view .LVU80
	movq	24(%rsp), %rdx
	movq	40(%rsp), %rsi
	call	memcpy@PLT
.LVL26:
	.loc 2 79 10 view .LVU81
.LBE17:
.LBE19:
	.loc 1 42 4 is_stmt 1 view .LVU82
	.loc 1 43 9 is_stmt 0 view .LVU83
	movslq	36(%rsp), %rax
	.loc 1 44 24 view .LVU84
	movb	$1, 23(%rsp)
.LVL27:
	.loc 1 42 5 view .LVU85
	addl	32(%rsp), %r15d
.LVL28:
	.loc 1 43 4 is_stmt 1 view .LVU86
	.loc 1 43 9 is_stmt 0 view .LVU87
	addq	%rax, %r13
.LVL29:
	.loc 1 44 4 is_stmt 1 view .LVU88
	.loc 1 44 4 is_stmt 0 view .LVU89
.LBE22:
	.loc 1 36 8 is_stmt 1 view .LVU90
	movzbl	0(%r13), %r14d
	testb	%r14b, %r14b
	jne	.L11
	.p2align 4,,10
	.p2align 3
.L25:
	.loc 1 52 2 view .LVU91
	.loc 1 52 4 is_stmt 0 view .LVU92
	cmpb	$0, 23(%rsp)
	je	.L15
.LVL30:
.L10:
	.loc 1 56 1 view .LVU93
	addq	$56, %rsp
	.cfi_remember_state
	.cfi_def_cfa_offset 56
	movq	%r12, %rax
	popq	%rbx
	.cfi_def_cfa_offset 48
.LVL31:
	.loc 1 56 1 view .LVU94
	popq	%rbp
	.cfi_def_cfa_offset 40
.LVL32:
	.loc 1 56 1 view .LVU95
	popq	%r12
	.cfi_def_cfa_offset 32
	popq	%r13
	.cfi_def_cfa_offset 24
.LVL33:
	.loc 1 56 1 view .LVU96
	popq	%r14
	.cfi_def_cfa_offset 16
	popq	%r15
	.cfi_def_cfa_offset 8
	ret
.LVL34:
	.p2align 4,,10
	.p2align 3
.L15:
	.cfi_restore_state
	.loc 1 52 29 is_stmt 1 view .LVU97
	.loc 1 52 35 is_stmt 0 view .LVU98
	xorl	%r12d, %r12d
.LVL35:
	.loc 1 52 35 view .LVU99
	jmp	.L10
	.cfi_endproc
.LFE54:
	.size	replace, .-replace
	.p2align 4
	.globl	generate_words
	.type	generate_words, @function
generate_words:
.LFB55:
	.loc 1 59 22 is_stmt 1 view -0
	.cfi_startproc
	endbr64
	pushq	%r14
	.cfi_def_cfa_offset 16
	.cfi_offset 14, -16
	pushq	%r13
	.cfi_def_cfa_offset 24
	.cfi_offset 13, -24
	pushq	%r12
	.cfi_def_cfa_offset 32
	.cfi_offset 12, -32
	pushq	%rbp
	.cfi_def_cfa_offset 40
	.cfi_offset 6, -40
	pushq	%rbx
	.cfi_def_cfa_offset 48
	.cfi_offset 3, -48
	leaq	rules(%rip), %rbx
	subq	$48, %rsp
	.cfi_def_cfa_offset 96
	.loc 1 59 22 is_stmt 0 view .LVU101
	movq	%fs:40, %rax
	movq	%rax, 40(%rsp)
	xorl	%eax, %eax
	.loc 1 62 2 is_stmt 1 view .LVU102
	.loc 1 63 2 view .LVU103
	leaq	16(%rsp), %r13
	movq	%r13, %rdi
	call	init_queue@PLT
.LVL36:
	.loc 1 64 2 view .LVU104
	movq	start_symbol(%rip), %rsi
	movq	%r13, %rdi
	call	enqueue@PLT
.LVL37:
	.loc 1 68 2 view .LVU105
	.loc 1 69 2 view .LVU106
.L27:
	.loc 1 69 40 view .LVU107
	.loc 1 69 22 is_stmt 0 view .LVU108
	movq	%r13, %rdi
	call	dequeue@PLT
.LVL38:
	movq	%rax, %r12
.LVL39:
	.loc 1 69 40 view .LVU109
	testq	%rax, %rax
	je	.L26
.L47:
.LVL40:
.LBB30:
.LBB31:
	.loc 1 13 19 is_stmt 1 view .LVU110
	.loc 1 13 16 is_stmt 0 view .LVU111
	movsbq	(%rax), %rbp
	.loc 1 13 19 view .LVU112
	testb	%bpl, %bpl
	je	.L30
	.loc 1 14 9 view .LVU113
	call	__ctype_b_loc@PLT
.LVL41:
	.loc 1 14 8 view .LVU114
	movq	(%rax), %rdx
	leaq	1(%r12), %rax
	jmp	.L29
.LVL42:
	.p2align 4,,10
	.p2align 3
.L46:
	.loc 1 13 28 is_stmt 1 view .LVU115
	.loc 1 13 19 view .LVU116
	.loc 1 13 16 is_stmt 0 view .LVU117
	movsbq	(%rax), %rbp
	.loc 1 13 19 view .LVU118
	addq	$1, %rax
.LVL43:
	.loc 1 13 19 view .LVU119
	testb	%bpl, %bpl
	je	.L30
.L29:
.LVL44:
	.loc 1 14 3 is_stmt 1 view .LVU120
	.loc 1 14 5 is_stmt 0 view .LVU121
	testb	$2, 1(%rdx,%rbp,2)
	jne	.L46
.LVL45:
.L28:
	.loc 1 14 5 view .LVU122
.LBE31:
.LBE30:
	.loc 1 74 3 is_stmt 1 view .LVU123
.LBB32:
	.loc 1 74 7 view .LVU124
	.loc 1 74 20 is_stmt 0 view .LVU125
	movl	$0, 12(%rsp)
	.loc 1 74 27 is_stmt 1 view .LVU126
	movl	12(%rsp), %eax
	cmpl	$3, %eax
	ja	.L27
	.p2align 4,,10
	.p2align 3
.L31:
.LBB33:
	.loc 1 77 8 is_stmt 0 view .LVU127
	xorl	%ecx, %ecx
	jmp	.L34
.LVL46:
	.p2align 4,,10
	.p2align 3
.L33:
	.loc 1 80 5 is_stmt 1 view .LVU128
	movq	%r14, %rsi
	movq	%r13, %rdi
	call	enqueue@PLT
.LVL47:
	.loc 1 81 5 view .LVU129
	movq	%r14, %rdi
	call	free@PLT
.LVL48:
	.loc 1 79 22 is_stmt 0 view .LVU130
	movl	%ebp, %ecx
.LVL49:
.L34:
	.loc 1 79 75 is_stmt 1 view .LVU131
	.loc 1 79 22 is_stmt 0 view .LVU132
	movslq	12(%rsp), %rdx
	movslq	12(%rsp), %rax
	movq	%r12, %rdi
	leal	1(%rcx), %ebp
.LVL50:
	.loc 1 79 44 view .LVU133
	salq	$4, %rax
	.loc 1 79 58 view .LVU134
	salq	$4, %rdx
	.loc 1 79 22 view .LVU135
	movq	8(%rbx,%rdx), %rdx
	movq	(%rbx,%rax), %rsi
	call	replace
.LVL51:
	movq	%rax, %r14
.LVL52:
	.loc 1 79 75 view .LVU136
	testq	%rax, %rax
	jne	.L33
.LBE33:
	.loc 1 74 58 is_stmt 1 discriminator 2 view .LVU137
	movl	12(%rsp), %eax
.LVL53:
	.loc 1 74 58 is_stmt 0 discriminator 2 view .LVU138
	addl	$1, %eax
	movl	%eax, 12(%rsp)
	.loc 1 74 27 is_stmt 1 discriminator 2 view .LVU139
	movl	12(%rsp), %eax
	cmpl	$3, %eax
	jbe	.L31
.LBE32:
	.loc 1 69 40 view .LVU140
	.loc 1 69 22 is_stmt 0 view .LVU141
	movq	%r13, %rdi
	call	dequeue@PLT
.LVL54:
	movq	%rax, %r12
.LVL55:
	.loc 1 69 40 view .LVU142
	testq	%rax, %rax
	jne	.L47
.LVL56:
.L26:
	.loc 1 87 1 view .LVU143
	movq	40(%rsp), %rax
	subq	%fs:40, %rax
.LVL57:
	.loc 1 87 1 view .LVU144
	jne	.L48
	addq	$48, %rsp
	.cfi_remember_state
	.cfi_def_cfa_offset 48
	popq	%rbx
	.cfi_def_cfa_offset 40
	popq	%rbp
	.cfi_def_cfa_offset 32
	popq	%r12
	.cfi_def_cfa_offset 24
.LVL58:
	.loc 1 87 1 view .LVU145
	popq	%r13
	.cfi_def_cfa_offset 16
	popq	%r14
	.cfi_def_cfa_offset 8
	ret
.LVL59:
.L30:
	.cfi_restore_state
	.loc 1 71 4 is_stmt 1 view .LVU146
.LBB34:
.LBI34:
	.file 3 "/usr/include/x86_64-linux-gnu/bits/stdio2.h"
	.loc 3 110 1 view .LVU147
.LBB35:
	.loc 3 112 3 view .LVU148
	.loc 3 112 10 is_stmt 0 view .LVU149
	movq	%r12, %rdi
	call	puts@PLT
.LVL60:
	jmp	.L28
.LVL61:
.L48:
	.loc 3 112 10 view .LVU150
.LBE35:
.LBE34:
	.loc 1 87 1 view .LVU151
	call	__stack_chk_fail@PLT
.LVL62:
	.cfi_endproc
.LFE55:
	.size	generate_words, .-generate_words
	.section	.text.startup,"ax",@progbits
	.p2align 4
	.globl	main
	.type	main, @function
main:
.LVL63:
.LFB56:
	.loc 1 93 32 is_stmt 1 view -0
	.cfi_startproc
	.loc 1 93 32 is_stmt 0 view .LVU153
	endbr64
	.loc 1 121 2 is_stmt 1 view .LVU154
	.loc 1 93 32 is_stmt 0 view .LVU155
	subq	$8, %rsp
	.cfi_def_cfa_offset 16
	.loc 1 121 2 view .LVU156
	xorl	%eax, %eax
	call	generate_words
.LVL64:
	.loc 1 123 2 is_stmt 1 view .LVU157
	.loc 1 124 1 is_stmt 0 view .LVU158
	xorl	%eax, %eax
	addq	$8, %rsp
	.cfi_def_cfa_offset 8
	ret
	.cfi_endproc
.LFE56:
	.size	main, .-main
	.globl	start_symbol
	.section	.rodata.str1.1,"aMS",@progbits,1
.LC0:
	.string	"X"
	.section	.data.rel.local,"aw"
	.align 8
	.type	start_symbol, @object
	.size	start_symbol, 8
start_symbol:
	.quad	.LC0
	.globl	rules
	.section	.rodata.str1.1
.LC1:
	.string	"aXc"
.LC2:
	.string	"pY"
.LC3:
	.string	"Y"
.LC4:
	.string	"bYc"
.LC5:
	.string	"q"
	.section	.data.rel.local
	.align 32
	.type	rules, @object
	.size	rules, 64
rules:
	.quad	.LC0
	.quad	.LC1
	.quad	.LC0
	.quad	.LC2
	.quad	.LC3
	.quad	.LC4
	.quad	.LC3
	.quad	.LC5
	.text
.Letext0:
	.file 4 "include/queue.h"
	.file 5 "/usr/lib/gcc/x86_64-linux-gnu/11/include/stddef.h"
	.file 6 "include/rules.h"
	.file 7 "/usr/include/stdlib.h"
	.file 8 "/usr/include/string.h"
	.file 9 "<built-in>"
	.file 10 "/usr/include/ctype.h"
	.section	.note.GNU-stack,"",@progbits
	.section	.note.gnu.property,"a"
	.align 8
	.long	1f - 0f
	.long	4f - 1f
	.long	5
0:
	.string	"GNU"
1:
	.align 8
	.long	0xc0000002
	.long	3f - 2f
2:
	.long	0x3
3:
	.align 8
4:
