	.file	"queue.c"
	.text
.Ltext0:
	.file 0 "/home/finn/Documents/OTH/CC/CompilerConstruction" "src/queue.c"
	.p2align 4
	.globl	init_queue
	.type	init_queue, @function
init_queue:
.LVL0:
.LFB51:
	.file 1 "src/queue.c"
	.loc 1 8 28 view -0
	.cfi_startproc
	.loc 1 8 28 is_stmt 0 view .LVU1
	endbr64
	.loc 1 10 2 is_stmt 1 view .LVU2
	.loc 1 8 28 is_stmt 0 view .LVU3
	pushq	%rbx
	.cfi_def_cfa_offset 16
	.cfi_offset 3, -16
	.loc 1 8 28 view .LVU4
	movq	%rdi, %rbx
	.loc 1 10 12 view .LVU5
	xorl	%edi, %edi
.LVL1:
	.loc 1 10 12 view .LVU6
	call	malloc@PLT
.LVL2:
	.loc 1 10 10 view .LVU7
	movq	%rax, (%rbx)
	.loc 1 11 2 is_stmt 1 view .LVU8
	.loc 1 12 2 view .LVU9
	.loc 1 11 10 is_stmt 0 view .LVU10
	movq	.LC0(%rip), %rax
	movq	%rax, 8(%rbx)
	.loc 1 13 1 view .LVU11
	popq	%rbx
	.cfi_def_cfa_offset 8
.LVL3:
	.loc 1 13 1 view .LVU12
	ret
	.cfi_endproc
.LFE51:
	.size	init_queue, .-init_queue
	.p2align 4
	.globl	free_queue
	.type	free_queue, @function
free_queue:
.LVL4:
.LFB52:
	.loc 1 15 28 is_stmt 1 view -0
	.cfi_startproc
	.loc 1 15 28 is_stmt 0 view .LVU14
	endbr64
	.loc 1 17 2 is_stmt 1 view .LVU15
	.loc 1 15 28 is_stmt 0 view .LVU16
	pushq	%rbp
	.cfi_def_cfa_offset 16
	.cfi_offset 6, -16
	pushq	%rbx
	.cfi_def_cfa_offset 24
	.cfi_offset 3, -24
	subq	$8, %rsp
	.cfi_def_cfa_offset 32
	.loc 1 17 4 view .LVU17
	movl	8(%rdi), %eax
	testl	%eax, %eax
	je	.L4
	movq	%rdi, %rbp
.LVL5:
.LBB9:
	.loc 1 18 18 is_stmt 1 view .LVU18
	jle	.L6
	xorl	%ebx, %ebx
.LVL6:
	.p2align 4,,10
	.p2align 3
.L7:
	.loc 1 19 4 discriminator 3 view .LVU19
	movq	0(%rbp), %rax
	movq	(%rax,%rbx,8), %rdi
	.loc 1 18 18 is_stmt 0 discriminator 3 view .LVU20
	addq	$1, %rbx
.LVL7:
	.loc 1 19 4 discriminator 3 view .LVU21
	call	free@PLT
.LVL8:
	.loc 1 18 30 is_stmt 1 discriminator 3 view .LVU22
	.loc 1 18 18 discriminator 3 view .LVU23
	cmpl	%ebx, 8(%rbp)
	jg	.L7
.L6:
	.loc 1 18 18 is_stmt 0 discriminator 3 view .LVU24
.LBE9:
	.loc 1 21 3 is_stmt 1 view .LVU25
	.loc 1 22 3 view .LVU26
	.loc 1 21 11 is_stmt 0 view .LVU27
	movq	.LC0(%rip), %rax
	.loc 1 23 11 view .LVU28
	movq	$0, 0(%rbp)
	.loc 1 21 11 view .LVU29
	movq	%rax, 8(%rbp)
	.loc 1 23 3 is_stmt 1 view .LVU30
.LVL9:
.L4:
	.loc 1 25 1 is_stmt 0 view .LVU31
	addq	$8, %rsp
	.cfi_def_cfa_offset 24
	popq	%rbx
	.cfi_def_cfa_offset 16
	popq	%rbp
	.cfi_def_cfa_offset 8
	ret
	.cfi_endproc
.LFE52:
	.size	free_queue, .-free_queue
	.section	.rodata.str1.1,"aMS",@progbits,1
.LC1:
	.string	"%s | "
	.text
	.p2align 4
	.globl	print_queue
	.type	print_queue, @function
print_queue:
.LVL10:
.LFB53:
	.loc 1 27 29 is_stmt 1 view -0
	.cfi_startproc
	.loc 1 27 29 is_stmt 0 view .LVU33
	endbr64
	.loc 1 29 2 is_stmt 1 view .LVU34
.LBB10:
	.loc 1 29 6 view .LVU35
.LBE10:
	.loc 1 27 29 is_stmt 0 view .LVU36
	pushq	%r13
	.cfi_def_cfa_offset 16
	.cfi_offset 13, -16
	pushq	%r12
	.cfi_def_cfa_offset 24
	.cfi_offset 12, -24
	pushq	%rbp
	.cfi_def_cfa_offset 32
	.cfi_offset 6, -32
	pushq	%rbx
	.cfi_def_cfa_offset 40
	.cfi_offset 3, -40
	subq	$8, %rsp
	.cfi_def_cfa_offset 48
.LBB19:
	.loc 1 29 10 view .LVU37
	movl	12(%rdi), %ebx
.LVL11:
	.loc 1 29 25 is_stmt 1 view .LVU38
	cmpl	8(%rdi), %ebx
	jg	.L14
	movslq	%ebx, %rbp
	movq	%rdi, %r12
	leaq	.LC1(%rip), %r13
	salq	$3, %rbp
.LVL12:
	.p2align 4,,10
	.p2align 3
.L15:
	.loc 1 30 3 discriminator 3 view .LVU39
.LBB11:
.LBI11:
	.file 2 "/usr/include/x86_64-linux-gnu/bits/stdio2.h"
	.loc 2 110 1 discriminator 3 view .LVU40
.LBB12:
	.loc 2 112 3 discriminator 3 view .LVU41
.LBE12:
.LBE11:
	.loc 1 30 3 is_stmt 0 discriminator 3 view .LVU42
	movq	(%r12), %rax
.LBB16:
.LBB13:
	.loc 2 112 10 discriminator 3 view .LVU43
	movq	%r13, %rsi
	movl	$1, %edi
.LBE13:
.LBE16:
	.loc 1 29 38 discriminator 3 view .LVU44
	addl	$1, %ebx
.LVL13:
.LBB17:
.LBB14:
	.loc 2 112 10 discriminator 3 view .LVU45
	movq	(%rax,%rbp), %rdx
	xorl	%eax, %eax
.LBE14:
.LBE17:
	.loc 1 29 25 discriminator 3 view .LVU46
	addq	$8, %rbp
.LBB18:
.LBB15:
	.loc 2 112 10 discriminator 3 view .LVU47
	call	__printf_chk@PLT
.LVL14:
	.loc 2 112 10 discriminator 3 view .LVU48
.LBE15:
.LBE18:
	.loc 1 29 38 is_stmt 1 discriminator 3 view .LVU49
	.loc 1 29 25 discriminator 3 view .LVU50
	cmpl	%ebx, 8(%r12)
	jge	.L15
.LVL15:
.L14:
	.loc 1 29 25 is_stmt 0 discriminator 3 view .LVU51
.LBE19:
	.loc 1 32 2 is_stmt 1 view .LVU52
.LBB20:
.LBI20:
	.loc 2 110 1 view .LVU53
.LBB21:
	.loc 2 112 3 view .LVU54
.LBE21:
.LBE20:
	.loc 1 33 1 is_stmt 0 view .LVU55
	addq	$8, %rsp
	.cfi_def_cfa_offset 40
.LBB24:
.LBB22:
	.loc 2 112 10 view .LVU56
	movl	$10, %edi
.LBE22:
.LBE24:
	.loc 1 33 1 view .LVU57
	popq	%rbx
	.cfi_def_cfa_offset 32
.LVL16:
	.loc 1 33 1 view .LVU58
	popq	%rbp
	.cfi_def_cfa_offset 24
	popq	%r12
	.cfi_def_cfa_offset 16
	popq	%r13
	.cfi_def_cfa_offset 8
.LBB25:
.LBB23:
	.loc 2 112 10 view .LVU59
	jmp	putchar@PLT
.LVL17:
.LBE23:
.LBE25:
	.cfi_endproc
.LFE53:
	.size	print_queue, .-print_queue
	.p2align 4
	.globl	dequeue
	.type	dequeue, @function
dequeue:
.LVL18:
.LFB54:
	.loc 1 36 26 is_stmt 1 view -0
	.cfi_startproc
	.loc 1 36 26 is_stmt 0 view .LVU61
	endbr64
	.loc 1 38 2 is_stmt 1 view .LVU62
	.loc 1 38 4 is_stmt 0 view .LVU63
	testq	%rdi, %rdi
	je	.L21
	.loc 1 40 2 is_stmt 1 view .LVU64
	.loc 1 40 6 is_stmt 0 view .LVU65
	movslq	12(%rdi), %rax
	.loc 1 40 4 view .LVU66
	cmpl	$-1, %eax
	je	.L21
	.loc 1 43 3 is_stmt 1 view .LVU67
	.loc 1 43 11 is_stmt 0 view .LVU68
	movq	(%rdi), %rdx
	.loc 1 43 25 view .LVU69
	leal	1(%rax), %ecx
	movl	%ecx, 12(%rdi)
	.loc 1 43 17 view .LVU70
	movq	(%rdx,%rax,8), %rax
	ret
	.p2align 4,,10
	.p2align 3
.L21:
	.loc 1 38 23 view .LVU71
	xorl	%eax, %eax
	.loc 1 44 1 view .LVU72
	ret
	.cfi_endproc
.LFE54:
	.size	dequeue, .-dequeue
	.p2align 4
	.globl	enqueue
	.type	enqueue, @function
enqueue:
.LVL19:
.LFB55:
	.loc 1 46 37 is_stmt 1 view -0
	.cfi_startproc
	.loc 1 46 37 is_stmt 0 view .LVU74
	endbr64
	.loc 1 48 2 is_stmt 1 view .LVU75
	.loc 1 48 4 is_stmt 0 view .LVU76
	testq	%rdi, %rdi
	je	.L35
	.loc 1 46 37 view .LVU77
	pushq	%r14
	.cfi_def_cfa_offset 16
	.cfi_offset 14, -16
	movq	%rsi, %r14
	.loc 1 50 2 is_stmt 1 view .LVU78
	.loc 1 46 37 is_stmt 0 view .LVU79
	pushq	%r13
	.cfi_def_cfa_offset 24
	.cfi_offset 13, -24
	pushq	%r12
	.cfi_def_cfa_offset 32
	.cfi_offset 12, -32
	pushq	%rbp
	.cfi_def_cfa_offset 40
	.cfi_offset 6, -40
	pushq	%rbx
	.cfi_def_cfa_offset 48
	.cfi_offset 3, -48
	.loc 1 50 6 view .LVU80
	movl	8(%rdi), %eax
	movq	%rdi, %rbx
	.loc 1 56 10 view .LVU81
	leal	1(%rax), %ebp
	.loc 1 50 4 view .LVU82
	cmpl	$-1, %eax
	jne	.L26
	.loc 1 51 3 is_stmt 1 view .LVU83
	.loc 1 51 11 is_stmt 0 view .LVU84
	movl	$0, 12(%rdi)
	.loc 1 52 3 is_stmt 1 view .LVU85
	.loc 1 52 11 is_stmt 0 view .LVU86
	xorl	%ebp, %ebp
.L26:
	movl	%ebp, 8(%rbx)
	.loc 1 59 2 is_stmt 1 view .LVU87
	.loc 1 59 12 is_stmt 0 view .LVU88
	movq	%r14, %rdi
.LVL20:
	.loc 1 59 12 view .LVU89
	call	strlen@PLT
.LVL21:
	.loc 1 59 25 view .LVU90
	leal	1(%rax), %edi
	.loc 1 59 12 view .LVU91
	movq	%rax, %r12
.LVL22:
	.loc 1 61 2 is_stmt 1 view .LVU92
	.loc 1 61 14 is_stmt 0 view .LVU93
	movslq	%edi, %rdi
	.loc 1 61 14 view .LVU94
	salq	$3, %rdi
.LVL23:
	.loc 1 61 14 view .LVU95
	call	malloc@PLT
.LVL24:
	.loc 1 61 14 view .LVU96
	movq	%rax, %r13
.LVL25:
	.loc 1 63 2 is_stmt 1 view .LVU97
	.loc 1 63 4 is_stmt 0 view .LVU98
	testq	%rax, %rax
	je	.L22
	.loc 1 65 2 is_stmt 1 view .LVU99
.LVL26:
.LBB26:
.LBI26:
	.file 3 "/usr/include/x86_64-linux-gnu/bits/string_fortified.h"
	.loc 3 77 42 view .LVU100
.LBB27:
	.loc 3 79 3 view .LVU101
	.loc 3 79 10 is_stmt 0 view .LVU102
	movq	%r14, %rsi
	movq	%rax, %rdi
	leaq	1(%r12), %rdx
	call	memcpy@PLT
.LVL27:
	.loc 3 79 10 view .LVU103
.LBE27:
.LBE26:
	.loc 1 67 2 is_stmt 1 view .LVU104
	.loc 1 67 49 is_stmt 0 view .LVU105
	leal	1(%rbp), %esi
	.loc 1 67 24 view .LVU106
	movq	(%rbx), %rdi
	.loc 1 67 49 view .LVU107
	movslq	%esi, %rsi
	.loc 1 67 24 view .LVU108
	salq	$3, %rsi
	call	realloc@PLT
.LVL28:
	.loc 1 69 2 is_stmt 1 view .LVU109
	.loc 1 69 4 is_stmt 0 view .LVU110
	testq	%rax, %rax
	je	.L22
	.loc 1 71 2 is_stmt 1 view .LVU111
	.loc 1 71 11 is_stmt 0 view .LVU112
	movslq	8(%rbx), %rdx
	.loc 1 71 19 view .LVU113
	movq	(%rbx), %rax
.LVL29:
	.loc 1 71 19 view .LVU114
	movq	%r13, (%rax,%rdx,8)
.L22:
	.loc 1 72 1 view .LVU115
	popq	%rbx
	.cfi_def_cfa_offset 40
.LVL30:
	.loc 1 72 1 view .LVU116
	popq	%rbp
	.cfi_def_cfa_offset 32
	popq	%r12
	.cfi_def_cfa_offset 24
	popq	%r13
	.cfi_def_cfa_offset 16
.LVL31:
	.loc 1 72 1 view .LVU117
	popq	%r14
	.cfi_def_cfa_offset 8
.LVL32:
	.loc 1 72 1 view .LVU118
	ret
.LVL33:
	.p2align 4,,10
	.p2align 3
.L35:
	.cfi_restore 3
	.cfi_restore 6
	.cfi_restore 12
	.cfi_restore 13
	.cfi_restore 14
	.loc 1 72 1 view .LVU119
	ret
	.cfi_endproc
.LFE55:
	.size	enqueue, .-enqueue
	.section	.rodata.cst8,"aM",@progbits,8
	.align 8
.LC0:
	.long	-1
	.long	-1
	.text
.Letext0:
	.file 4 "include/queue.h"
	.file 5 "/usr/lib/gcc/x86_64-linux-gnu/11/include/stddef.h"
	.file 6 "/usr/include/stdlib.h"
	.file 7 "/usr/include/string.h"
	.file 8 "<built-in>"
	.section	.note.GNU-stack,"",@progbits
	.section	.note.gnu.property,"a"
	.align 8
	.long	1f - 0f
	.long	4f - 1f
	.long	5
0:
	.string	"GNU"
1:
	.align 8
	.long	0xc0000002
	.long	3f - 2f
2:
	.long	0x3
3:
	.align 8
4:
