	.file	"main.c"
	.text
.Ltext0:
	.file 0 "/home/finn/Documents/OTH/CC/CompilerConstruction/ex6/ex2" "src/main.c"
	.p2align 4
	.globl	pda_transition
	.type	pda_transition, @function
pda_transition:
.LVL0:
.LFB23:
	.file 1 "src/main.c"
	.loc 1 7 57 view -0
	.cfi_startproc
	.loc 1 7 57 is_stmt 0 view .LVU1
	endbr64
	.loc 1 8 2 is_stmt 1 view .LVU2
	.loc 1 7 57 is_stmt 0 view .LVU3
	subq	$8, %rsp
	.cfi_def_cfa_offset 16
	.loc 1 8 2 view .LVU4
	cmpl	$2, %edi
	je	.L2
	cmpl	$3, %edi
	je	.L3
	cmpl	$1, %edi
	je	.L13
.LVL1:
.L1:
	.loc 1 30 1 view .LVU5
	addq	$8, %rsp
	.cfi_remember_state
	.cfi_def_cfa_offset 8
	ret
.LVL2:
	.p2align 4,,10
	.p2align 3
.L2:
	.cfi_restore_state
	.loc 1 14 11 is_stmt 1 view .LVU6
	cmpb	$98, %sil
	je	.L7
	.loc 1 12 20 is_stmt 0 view .LVU7
	xorl	%eax, %eax
	cmpb	$113, %sil
	sete	%al
	.loc 1 30 1 view .LVU8
	addq	$8, %rsp
	.cfi_remember_state
	.cfi_def_cfa_offset 8
	.loc 1 12 20 view .LVU9
	leal	(%rax,%rax,2), %eax
	.loc 1 30 1 view .LVU10
	ret
	.p2align 4,,10
	.p2align 3
.L13:
	.cfi_restore_state
	.loc 1 9 11 is_stmt 1 view .LVU11
	cmpb	$97, %sil
	je	.L5
	xorl	%eax, %eax
	cmpb	$112, %sil
	sete	%al
	.loc 1 30 1 is_stmt 0 view .LVU12
	addq	$8, %rsp
	.cfi_remember_state
	.cfi_def_cfa_offset 8
	.loc 1 9 11 view .LVU13
	addl	%eax, %eax
	.loc 1 30 1 view .LVU14
	ret
	.p2align 4,,10
	.p2align 3
.L3:
	.cfi_restore_state
	.loc 1 19 11 is_stmt 1 view .LVU15
	testb	%sil, %sil
	je	.L9
	xorl	%eax, %eax
	cmpb	$99, %sil
	jne	.L1
	.loc 1 20 14 view .LVU16
	movq	32(%rdx), %rdi
.LVL3:
	.loc 1 20 14 is_stmt 0 view .LVU17
	call	s_pop@PLT
.LVL4:
	.loc 1 20 33 is_stmt 1 view .LVU18
	.loc 1 20 40 is_stmt 0 view .LVU19
	movl	$3, %eax
	jmp	.L1
.LVL5:
	.p2align 4,,10
	.p2align 3
.L9:
	.loc 1 21 15 is_stmt 1 view .LVU20
	.loc 1 21 18 is_stmt 0 view .LVU21
	movq	32(%rdx), %rdi
.LVL6:
	.loc 1 21 18 view .LVU22
	call	s_isempty@PLT
.LVL7:
	.loc 1 21 17 view .LVU23
	negl	%eax
	sbbl	%eax, %eax
	jmp	.L1
.LVL8:
	.p2align 4,,10
	.p2align 3
.L5:
	.loc 1 10 14 is_stmt 1 view .LVU24
	movq	32(%rdx), %rdi
.LVL9:
	.loc 1 10 14 is_stmt 0 view .LVU25
	movl	$97, %esi
.LVL10:
	.loc 1 10 14 view .LVU26
	call	s_push@PLT
.LVL11:
	.loc 1 10 39 is_stmt 1 view .LVU27
	.loc 1 10 46 is_stmt 0 view .LVU28
	movl	$1, %eax
	jmp	.L1
.LVL12:
	.p2align 4,,10
	.p2align 3
.L7:
	.loc 1 15 14 is_stmt 1 view .LVU29
	movq	32(%rdx), %rdi
.LVL13:
	.loc 1 15 14 is_stmt 0 view .LVU30
	movl	$98, %esi
.LVL14:
	.loc 1 15 14 view .LVU31
	call	s_push@PLT
.LVL15:
	.loc 1 15 39 is_stmt 1 view .LVU32
	.loc 1 15 46 is_stmt 0 view .LVU33
	movl	$2, %eax
	jmp	.L1
	.cfi_endproc
.LFE23:
	.size	pda_transition, .-pda_transition
	.section	.rodata.str1.1,"aMS",@progbits,1
.LC0:
	.string	"aaapbbqcccc"
.LC1:
	.string	"Word accepted."
.LC2:
	.string	"Word declined."
	.section	.text.startup,"ax",@progbits
	.p2align 4
	.globl	main
	.type	main, @function
main:
.LVL16:
.LFB24:
	.loc 1 33 32 is_stmt 1 view -0
	.cfi_startproc
	.loc 1 33 32 is_stmt 0 view .LVU35
	endbr64
	.loc 1 35 2 is_stmt 1 view .LVU36
	.loc 1 33 32 is_stmt 0 view .LVU37
	subq	$8, %rsp
	.cfi_def_cfa_offset 16
	.loc 1 35 20 view .LVU38
	leaq	pda_transition(%rip), %rsi
.LVL17:
	.loc 1 35 20 view .LVU39
	movl	$1, %edi
.LVL18:
	.loc 1 35 20 view .LVU40
	call	create_dfa@PLT
.LVL19:
	.loc 1 38 28 view .LVU41
	leaq	.LC0(%rip), %rsi
	.loc 1 35 20 view .LVU42
	movq	%rax, %rdi
.LVL20:
	.loc 1 37 2 is_stmt 1 view .LVU43
	.loc 1 38 2 view .LVU44
	.loc 1 38 28 is_stmt 0 view .LVU45
	call	dfa_new_ctx@PLT
.LVL21:
	.loc 1 38 28 view .LVU46
	movq	%rax, %rdi
.LVL22:
	.loc 1 40 2 is_stmt 1 view .LVU47
	.loc 1 40 5 is_stmt 0 view .LVU48
	call	run_dfa@PLT
.LVL23:
	.loc 1 40 4 view .LVU49
	testl	%eax, %eax
	je	.L15
	.loc 1 41 3 is_stmt 1 view .LVU50
.LVL24:
.LBB6:
.LBI6:
	.file 2 "/usr/include/x86_64-linux-gnu/bits/stdio2.h"
	.loc 2 110 1 view .LVU51
.LBB7:
	.loc 2 112 3 view .LVU52
	.loc 2 112 10 is_stmt 0 view .LVU53
	leaq	.LC1(%rip), %rdi
	call	puts@PLT
.LVL25:
.L16:
	.loc 2 112 10 view .LVU54
.LBE7:
.LBE6:
	.loc 1 46 2 is_stmt 1 view .LVU55
	.loc 1 47 1 is_stmt 0 view .LVU56
	xorl	%eax, %eax
	addq	$8, %rsp
	.cfi_remember_state
	.cfi_def_cfa_offset 8
	ret
.L15:
	.cfi_restore_state
	.loc 1 43 3 is_stmt 1 view .LVU57
.LVL26:
.LBB8:
.LBI8:
	.loc 2 110 1 view .LVU58
.LBB9:
	.loc 2 112 3 view .LVU59
	.loc 2 112 10 is_stmt 0 view .LVU60
	leaq	.LC2(%rip), %rdi
	call	puts@PLT
.LVL27:
	jmp	.L16
.LBE9:
.LBE8:
	.cfi_endproc
.LFE24:
	.size	main, .-main
	.text
.Letext0:
	.file 3 "include/stack.h"
	.file 4 "include/generic_pda.h"
	.file 5 "<built-in>"
	.section	.note.GNU-stack,"",@progbits
	.section	.note.gnu.property,"a"
	.align 8
	.long	1f - 0f
	.long	4f - 1f
	.long	5
0:
	.string	"GNU"
1:
	.align 8
	.long	0xc0000002
	.long	3f - 2f
2:
	.long	0x3
3:
	.align 8
4:
